ccopy_reg
_reconstructor
p0
(cdigits.dataset.images.classification.job
ImageClassificationDatasetJob
p1
c__builtin__
object
p2
Ntp3
Rp4
(dp5
S'username'
p6
Visaac
p7
sS'_notes'
p8
NsS'tasks'
p9
(lp10
g0
(cdigits.dataset.tasks.parse_folder
ParseFolderTask
p11
g2
Ntp12
Rp13
(dp14
S'train_count'
p15
I17954
sS'percent_test'
p16
F0.0
sS'labels_file'
p17
S'labels.txt'
p18
sS'percent_val'
p19
F25.0
sS'val_file'
p20
S'val.txt'
p21
sS'pickver_task_parsefolder'
p22
I1
sS'test_count'
p23
I0
sS'max_per_category'
p24
NsS'pickver_task'
p25
I1
sS'exception'
p26
NsS'current_resources'
p27
NsS'job_id'
p28
S'20180416-002052-9173'
p29
sS'train_file'
p30
S'train.txt'
p31
sS'traceback'
p32
NsS'label_count'
p33
I2
sS'job_dir'
p34
S'/home/fei/digits/digits/jobs/20180416-002052-9173'
p35
sS'parents'
p36
NsS'progress'
p37
F1.0
sS'folder'
p38
V/home/fei/Documents/isaac/3DNN/dataset_robot/2Class
p39
sS'min_per_category'
p40
I2
sS'val_count'
p41
I5984
sS'status_history'
p42
(lp43
((idigits.status
Status
p44
S'I'
p46
bF1523830852.306181
tp47
a((idigits.status
Status
p48
S'R'
p49
bF1523830853.919245
tp50
a((idigits.status
Status
p51
S'D'
p52
bF1523830892.885727
tp53
asbag0
(cdigits.dataset.tasks.create_db
CreateDbTask
p54
g2
Ntp55
Rp56
(dp57
g17
g18
sg32
NsS'shuffle'
p58
I01
sS'pickver_task_createdb'
p59
I3
sS'encoding'
p60
Vpng
p61
sS'image_dims'
p62
(I110
I110
I3
tp63
sS'resize_mode'
p64
Vsquash
p65
sS'mean_file'
p66
S'mean.binaryproto'
p67
sS'db_name'
p68
S'train_db'
p69
sS'delete_files'
p70
I00
sS'create_db_log_file'
p71
S'create_train_db.log'
p72
sS'entries_count'
p73
I17954
sg25
I1
sS'distribution'
p74
(dp75
V1
p76
(dp77
S'count'
p78
I5241
sS'error_count'
p79
I0
ssV0
p80
(dp81
g78
I12713
sg79
I0
sssS'image_folder'
p82
NsS'backend'
p83
Vlmdb
p84
sS'_labels'
p85
(lp86
S'ball'
p87
aS'noBall'
p88
asg26
Nsg27
NsS'compression'
p89
S'none'
p90
sS'input_file'
p91
g31
sg28
S'20180416-002052-9173'
p92
sg34
g35
sg36
(lp93
g13
asS'image_channel_order'
p94
S'BGR'
p95
sg37
F1.0
sg42
(lp96
((idigits.status
Status
p97
g46
bF1523830852.306273
tp98
a((idigits.status
Status
p99
g49
bF1523830893.030036
tp100
a((idigits.status
Status
p101
g52
bF1523832719.067694
tp102
asS'entries_error'
p103
Nsbag0
(g54
g2
Ntp104
Rp105
(dp106
g17
g18
sg32
Nsg58
I01
sg59
I3
sg60
g61
sg62
g63
sg64
g65
sg66
Nsg68
S'val_db'
p107
sg70
I00
sg71
S'create_val_db.log'
p108
sg73
I5984
sg25
I1
sg74
(dp109
g76
(dp110
g78
I1747
sg79
I0
ssg80
(dp111
g78
I4237
sg79
I0
sssg82
Nsg83
g84
sg85
(lp112
S'ball'
p113
aS'noBall'
p114
asg26
Nsg27
Nsg89
g90
sg91
g21
sg28
S'20180416-002052-9173'
p115
sg34
g35
sg36
(lp116
g13
asg94
g95
sg37
F1.0
sg42
(lp117
((idigits.status
Status
p118
g46
bF1523830852.306341
tp119
a((idigits.status
Status
p120
g49
bF1523830893.040536
tp121
a((idigits.status
Status
p122
g52
bF1523831742.318921
tp123
asg103
Nsbasg17
g18
sg62
g63
sg64
g65
sS'pickver_job'
p124
I2
sS'pickver_job_dataset_image'
p125
I1
sg26
NsS'group'
p126
V
p127
sS'pickver_job_dataset_image_classification'
p128
I2
sS'persistent'
p129
I01
sS'_name'
p130
Vrobot_110_2class
p131
sS'form_data'
p132
(dp133
S'form.s3_path.data'
p134
g127
sS'form.textfile_labels_file.data'
p135
g127
sS'form.textfile_local_train_images.data'
p136
g127
sS'form.resize_height.data'
p137
I110
sS'form.s3_bucket.data'
p138
g127
sS'form.folder_train.data'
p139
g39
sS'form.folder_val_max_per_class.data'
p140
NsS'form.folder_train_min_per_class.data'
p141
I2
sS'form.textfile_val_folder.data'
p142
g127
sS'form.s3_keepcopiesondisk.data'
p143
I00
sS'form.textfile_val_images.data'
p144
g127
sS'form.backend.data'
p145
g84
sS'form.encoding.data'
p146
g61
sS'form.method.data'
p147
Vfolder
p148
sS'form.has_test_folder.data'
p149
I00
sS'form.folder_test_max_per_class.data'
p150
NsS'form.s3_train_max_per_class.data'
p151
NsS'form.folder_val.data'
p152
g127
sS'form.compression.data'
p153
g90
sS'form.s3_secretkey.data'
p154
g127
sS'form.textfile_use_test.data'
p155
I00
sS'form.folder_val_min_per_class.data'
p156
I2
sS'form.folder_pct_test.data'
p157
I0
sS'form.has_val_folder.data'
p158
I00
sS'form.s3_pct_test.data'
p159
I0
sS'form.textfile_local_labels_file.data'
p160
g127
sS'form.s3_train_min_per_class.data'
p161
I2
sS'form.textfile_local_val_images.data'
p162
g127
sS'form.textfile_test_images.data'
p163
g127
sS'form.dataset_name.data'
p164
g131
sS'form.textfile_train_images.data'
p165
g127
sS'form.textfile_train_folder.data'
p166
g127
sS'form.s3_endpoint_url.data'
p167
g127
sS'form.group_name.data'
p168
g127
sS'form.folder_train_max_per_class.data'
p169
NsS'form.folder_test.data'
p170
g127
sS'form.folder_test_min_per_class.data'
p171
I2
sS'form.folder_pct_val.data'
p172
I25
sS'form.resize_mode.data'
p173
g65
sS'form.resize_channels.data'
p174
V3
p175
sS'form.s3_accesskey.data'
p176
g127
sS'form.textfile_test_folder.data'
p177
g127
sS'form.textfile_use_local_files.data'
p178
I00
sS'form.resize_width.data'
p179
I110
sS'form.s3_pct_val.data'
p180
I25
sS'form.textfile_use_val.data'
p181
I01
sS'form.textfile_shuffle.data'
p182
I1
sS'form.textfile_local_test_images.data'
p183
g127
ssg37
F1.0
sS'_id'
p184
S'20180416-002052-9173'
p185
sS'pickver_job_dataset'
p186
I1
sg42
(lp187
((idigits.status
Status
p188
g46
bF1523830852.305986
tp189
a((idigits.status
Status
p190
g49
bF1523830853.702688
tp191
a((idigits.status
Status
p192
g52
bF1523832719.185902
tp193
asb.