ccopy_reg
_reconstructor
p0
(cdigits.model.images.classification.job
ImageClassificationModelJob
p1
c__builtin__
object
p2
Ntp3
Rp4
(dp5
S'username'
p6
Visaac
p7
sS'_notes'
p8
NsS'tasks'
p9
(lp10
g0
(cdigits.model.tasks.caffe_train
CaffeTrainTask
p11
g2
Ntp12
Rp13
(dp14
S'shuffle'
p15
I01
sS'snapshot_interval'
p16
F20.0
sS'caffe_version'
p17
S'1.0.0'
p18
sS'train_outputs'
p19
ccollections
OrderedDict
p20
((lp21
(lp22
S'epoch'
p23
ag0
(cdigits.model.tasks.train
NetworkOutput
p24
c__builtin__
tuple
p25
(S'Epoch'
p26
(lp27
I0
aF0.12455516014234876
aF0.2491103202846975
aF0.3736654804270463
aF0.498220640569395
aF0.6227758007117438
aF0.7473309608540926
aF0.8718861209964412
aF0.99644128113879
aF1.1209964412811388
aF1.2455516014234875
aF1.3701067615658362
aF1.4946619217081851
aF1.6192170818505338
aF1.7437722419928825
aF1.8683274021352314
aF1.99288256227758
aF2.117437722419929
aF2.2419928825622777
aF2.3665480427046264
aF2.491103202846975
aF2.6156583629893237
aF2.7402135231316724
aF2.8647686832740216
aF2.9893238434163703
aF3.113879003558719
aF3.2384341637010676
aF3.3629893238434163
aF3.487544483985765
aF3.6120996441281137
aF3.736654804270463
aF3.8612099644128115
aF3.98576512455516
aF4.110320284697509
aF4.234875444839858
aF4.359430604982206
aF4.483985765124555
aF4.608540925266904
aF4.733096085409253
aF4.857651245551601
aF4.98220640569395
aF5.106761565836299
aF5.2313167259786475
aF5.355871886120997
aF5.480427046263345
aF5.604982206405694
aF5.729537366548043
aF5.854092526690391
aF5.9786476868327405
aF6.103202846975089
aF6.227758007117438
aF6.352313167259786
aF6.476868327402135
aF6.601423487544484
aF6.725978647686833
aF6.850533807829182
aF6.97508896797153
aF7.099644128113879
aF7.224199288256227
aF7.3487544483985765
aF7.473309608540926
aF7.597864768683274
aF7.722419928825623
aF7.846975088967971
aF7.97153024911032
aF8.09608540925267
aF8.220640569395018
aF8.345195729537366
aF8.469750889679716
aF8.594306049822064
aF8.718861209964412
aF8.84341637010676
aF8.96797153024911
aF9.092526690391459
aF9.217081850533807
aF9.341637010676157
aF9.466192170818506
aF9.590747330960854
aF9.715302491103202
aF9.839857651245552
aF9.9644128113879
aF10.088967971530248
aF10.213523131672599
aF10.338078291814947
aF10.462633451957295
aF10.587188612099645
aF10.711743772241993
aF10.836298932384341
aF10.96085409252669
aF11.08540925266904
aF11.209964412811388
aF11.334519572953736
aF11.459074733096086
aF11.583629893238435
aF11.708185053380783
aF11.832740213523131
aF11.957295373665481
aF12.08185053380783
aF12.206405693950177
aF12.330960854092528
aF12.455516014234876
aF12.580071174377224
aF12.704626334519572
aF12.829181494661922
aF12.95373665480427
aF13.078291814946619
aF13.202846975088969
aF13.327402135231317
aF13.451957295373665
aF13.576512455516013
aF13.701067615658364
aF13.825622775800712
aF13.95017793594306
aF14.07473309608541
aF14.199288256227758
aF14.323843416370106
aF14.448398576512455
aF14.572953736654805
aF14.697508896797153
aF14.822064056939501
aF14.946619217081851
aF15.0711743772242
aF15.195729537366548
aF15.320284697508896
aF15.444839857651246
aF15.569395017793594
aF15.693950177935942
aF15.818505338078293
aF15.94306049822064
aF16.06761565836299
aF16.19217081850534
aF16.316725978647685
aF16.441281138790035
aF16.565836298932386
aF16.690391459074732
aF16.814946619217082
aF16.939501779359432
aF17.06405693950178
aF17.18861209964413
aF17.31316725978648
aF17.437722419928825
aF17.562277580071175
aF17.68683274021352
aF17.81138790035587
aF17.93594306049822
aF18.060498220640568
aF18.185053380782918
aF18.309608540925268
aF18.434163701067614
aF18.558718861209965
aF18.683274021352315
aF18.80782918149466
aF18.93238434163701
aF19.05693950177936
aF19.181494661921707
aF19.306049822064058
aF19.430604982206404
aF19.555160142348754
aF19.679715302491104
aF19.80427046263345
aF19.9288256227758
aF20.05338078291815
aF20.177935943060497
aF20.302491103202847
aF20.427046263345197
aF20.551601423487543
aF20.676156583629894
aF20.800711743772244
aF20.92526690391459
aF21.04982206405694
aF21.17437722419929
aF21.298932384341636
aF21.423487544483987
aF21.548042704626333
aF21.672597864768683
aF21.797153024911033
aF21.92170818505338
aF22.04626334519573
aF22.17081850533808
aF22.295373665480426
aF22.419928825622776
aF22.544483985765126
aF22.669039145907472
aF22.793594306049823
aF22.918149466192173
aF23.04270462633452
aF23.16725978647687
aF23.291814946619215
aF23.416370106761565
aF23.540925266903916
aF23.665480427046262
aF23.790035587188612
aF23.914590747330962
aF24.03914590747331
aF24.16370106761566
aF24.28825622775801
aF24.412811387900355
aF24.537366548042705
aF24.661921708185055
aF24.7864768683274
aF24.91103202846975
aF25.035587188612098
aF25.160142348754448
aF25.284697508896798
aF25.409252669039144
aF25.533807829181494
aF25.658362989323845
aF25.78291814946619
aF25.90747330960854
aF26.03202846975089
aF26.156583629893237
aF26.281138790035588
aF26.405693950177938
aF26.530249110320284
aF26.654804270462634
aF26.77935943060498
aF26.90391459074733
aF27.02846975088968
aF27.153024911032027
aF27.277580071174377
aF27.402135231316727
aF27.526690391459073
aF27.651245551601424
aF27.775800711743774
aF27.90035587188612
aF28.02491103202847
aF28.14946619217082
aF28.274021352313166
aF28.398576512455517
aF28.523131672597867
aF28.647686832740213
aF28.772241992882563
aF28.89679715302491
aF29.02135231316726
aF29.14590747330961
aF29.270462633451956
aF29.395017793594306
aF29.519572953736656
aF29.644128113879002
aF29.768683274021353
aF29.893238434163703
aF30.01779359430605
aF30.1423487544484
aF30.26690391459075
aF30.391459074733095
aF30.516014234875446
aF30.640569395017792
aF30.765124555160142
aF30.889679715302492
aF31.01423487544484
aF31.13879003558719
aF31.26334519572954
aF31.387900355871885
aF31.512455516014235
aF31.637010676156585
aF31.76156583629893
aF31.88612099644128
aF32.01067615658363
aF32.13523131672598
aF32.25978647686833
aF32.38434163701068
aF32.50889679715303
aF32.63345195729537
aF32.75800711743772
aF32.88256227758007
aF33.00711743772242
aF33.13167259786477
aF33.256227758007114
aF33.380782918149464
aF33.505338078291814
aF33.629893238434164
aF33.754448398576514
aF33.879003558718864
aF34.00355871886121
aF34.12811387900356
aF34.25266903914591
aF34.37722419928826
aF34.50177935943061
aF34.62633451957296
aF34.7508896797153
aF34.87544483985765
aF35.0
aF35.12455516014235
aF35.2491103202847
aF35.37366548042704
aF35.49822064056939
aF35.62277580071174
aF35.74733096085409
aF35.87188612099644
aF35.99644128113879
aF36.120996441281136
aF36.245551601423486
aF36.370106761565836
aF36.494661921708186
aF36.619217081850536
aF36.743772241992886
aF36.86832740213523
aF36.99288256227758
aF37.11743772241993
aF37.24199288256228
aF37.36654804270463
aF37.49110320284697
aF37.61565836298932
aF37.74021352313167
aF37.86476868327402
aF37.98932384341637
aF38.11387900355872
aF38.238434163701065
aF38.362989323843415
aF38.487544483985765
aF38.612099644128115
aF38.736654804270465
aF38.86120996441281
aF38.98576512455516
aF39.11032028469751
aF39.23487544483986
aF39.35943060498221
aF39.48398576512456
aF39.6085409252669
aF39.73309608540925
aF39.8576512455516
aF39.98220640569395
aF40.1067615658363
aF40.23131672597865
aF40.355871886120994
aF40.480427046263344
aF40.604982206405694
aF40.729537366548044
aF40.854092526690394
aF40.97864768683274
aF41.10320284697509
aF41.22775800711744
aF41.35231316725979
aF41.47686832740214
aF41.60142348754449
aF41.72597864768683
aF41.85053380782918
aF41.97508896797153
aF42.09964412811388
aF42.22419928825623
aF42.34875444839858
aF42.47330960854092
aF42.59786476868327
aF42.72241992882562
aF42.84697508896797
aF42.97153024911032
aF43.096085409252666
aF43.220640569395016
aF43.345195729537366
aF43.469750889679716
aF43.594306049822066
aF43.718861209964416
aF43.84341637010676
aF43.96797153024911
aF44.09252669039146
aF44.21708185053381
aF44.34163701067616
aF44.4661921708185
aF44.59074733096085
aF44.7153024911032
aF44.83985765124555
aF44.9644128113879
aF45.08896797153025
aF45.213523131672595
aF45.338078291814945
aF45.462633451957295
aF45.587188612099645
aF45.711743772241995
aF45.836298932384345
aF45.96085409252669
aF46.08540925266904
aF46.20996441281139
aF46.33451957295374
aF46.45907473309609
aF46.58362989323843
aF46.70818505338078
aF46.83274021352313
aF46.95729537366548
aF47.08185053380783
aF47.20640569395018
aF47.330960854092524
aF47.455516014234874
aF47.580071174377224
aF47.704626334519574
aF47.829181494661924
aF47.95373665480427
aF48.07829181494662
aF48.20284697508897
aF48.32740213523132
aF48.45195729537367
aF48.57651245551602
aF48.70106761565836
aF48.82562277580071
aF48.95017793594306
aF49.07473309608541
aF49.19928825622776
aF49.32384341637011
aF49.44839857651245
aF49.5729537366548
aF49.69750889679715
aF49.8220640569395
aF49.94661921708185
aF50.071174377224196
aF50.195729537366546
aF50.320284697508896
aF50.444839857651246
aF50.569395017793596
aF50.693950177935946
aF50.81850533807829
aF50.94306049822064
aF51.06761565836299
aF51.19217081850534
aF51.31672597864769
aF51.44128113879004
aF51.56583629893238
aF51.69039145907473
aF51.81494661921708
aF51.93950177935943
aF52.06405693950178
aF52.188612099644125
aF52.313167259786475
aF52.437722419928825
aF52.562277580071175
aF52.686832740213525
aF52.811387900355875
aF52.93594306049822
aF53.06049822064057
aF53.18505338078292
aF53.30960854092527
aF53.43416370106762
aF53.55871886120996
aF53.68327402135231
aF53.80782918149466
aF53.93238434163701
aF54.05693950177936
aF54.18149466192171
aF54.306049822064054
aF54.430604982206404
aF54.555160142348754
aF54.679715302491104
aF54.804270462633454
aF54.928825622775804
aF55.05338078291815
aF55.1779359430605
aF55.30249110320285
aF55.4270462633452
aF55.55160142348755
aF55.67615658362989
aF55.80071174377224
aF55.92526690391459
aF56.04982206405694
aF56.17437722419929
aF56.29893238434164
aF56.42348754448398
aF56.54804270462633
aF56.67259786476868
aF56.79715302491103
aF56.92170818505338
aF57.04626334519573
aF57.170818505338076
aF57.295373665480426
aF57.419928825622776
aF57.544483985765126
aF57.669039145907476
aF57.79359430604982
aF57.91814946619217
aF58.04270462633452
aF58.16725978647687
aF58.29181494661922
aF58.41637010676157
aF58.54092526690391
aF58.66548042704626
aF58.79003558718861
aF58.91459074733096
aF59.03914590747331
aF59.163701067615655
aF59.288256227758005
aF59.412811387900355
aF59.537366548042705
aF59.661921708185055
aF59.786476868327405
aF59.91103202846975
aF60.0355871886121
aF60.16014234875445
aF60.2846975088968
aF60.40925266903915
aF60.5338078291815
aF60.65836298932384
aF60.78291814946619
aF60.90747330960854
aF61.03202846975089
aF61.15658362989324
aF61.281138790035584
aF61.405693950177934
aF61.530249110320284
aF61.654804270462634
aF61.779359430604984
aF61.903914590747334
aF62.02846975088968
aF62.15302491103203
aF62.27758007117438
aF62.40213523131673
aF62.52669039145908
aF62.65124555160142
aF62.77580071174377
aF62.90035587188612
aF63.02491103202847
aF63.14946619217082
aF63.27402135231317
aF63.39857651245551
aF63.52313167259786
aF63.64768683274021
aF63.77224199288256
aF63.89679715302491
aF64.02135231316726
aF64.1459074733096
aF64.27046263345196
aF64.3950177935943
aF64.51957295373666
aF64.644128113879
aF64.76868327402136
aF64.8932384341637
aF65.01779359430606
aF65.14234875444839
aF65.26690391459074
aF65.39145907473309
aF65.51601423487544
aF65.64056939501779
aF65.76512455516014
aF65.88967971530249
aF66.01423487544484
aF66.13879003558719
aF66.26334519572954
aF66.38790035587189
aF66.51245551601423
aF66.63701067615658
aF66.76156583629893
aF66.88612099644128
aF67.01067615658363
aF67.13523131672598
aF67.25978647686833
aF67.38434163701068
aF67.50889679715303
aF67.63345195729538
aF67.75800711743773
aF67.88256227758008
aF68.00711743772241
aF68.13167259786476
aF68.25622775800711
aF68.38078291814946
aF68.50533807829181
aF68.62989323843416
aF68.75444839857651
aF68.87900355871886
aF69.00355871886121
aF69.12811387900356
aF69.25266903914591
aF69.37722419928825
aF69.5017793594306
aF69.62633451957295
aF69.7508896797153
aF69.87544483985765
aF70.0
aF70.12455516014235
aF70.2491103202847
aF70.37366548042705
aF70.4982206405694
aF70.62277580071175
aF70.74733096085409
aF70.87188612099644
aF70.99644128113879
aF71.12099644128114
aF71.24555160142349
aF71.37010676156584
aF71.49466192170819
aF71.61921708185054
aF71.74377224199289
aF71.86832740213524
aF71.99288256227759
aF72.11743772241992
aF72.24199288256227
aF72.36654804270462
aF72.49110320284697
aF72.61565836298932
aF72.74021352313167
aF72.86476868327402
aF72.98932384341637
aF73.11387900355872
aF73.23843416370107
aF73.36298932384342
aF73.48754448398577
aF73.61209964412811
aF73.73665480427046
aF73.86120996441281
aF73.98576512455516
aF74.11032028469751
aF74.23487544483986
aF74.35943060498221
aF74.48398576512456
aF74.60854092526691
aF74.73309608540926
aF74.85765124555161
aF74.98220640569394
aF75.1067615658363
aF75.23131672597864
aF75.355871886121
aF75.48042704626334
aF75.6049822064057
aF75.72953736654804
aF75.8540925266904
aF75.97864768683274
aF76.1032028469751
aF76.22775800711744
aF76.35231316725978
aF76.47686832740213
aF76.60142348754448
aF76.72597864768683
aF76.85053380782918
aF76.97508896797153
aF77.09964412811388
aF77.22419928825623
aF77.34875444839858
aF77.47330960854093
aF77.59786476868328
aF77.72241992882562
aF77.84697508896797
aF77.97153024911032
aF78.09608540925267
aF78.22064056939502
aF78.34519572953737
aF78.46975088967972
aF78.59430604982207
aF78.71886120996442
aF78.84341637010677
aF78.96797153024912
aF79.09252669039147
aF79.2170818505338
aF79.34163701067615
aF79.4661921708185
aF79.59074733096085
aF79.7153024911032
aF79.83985765124555
aF79.9644128113879
aF80.08896797153025
aF80.2135231316726
aF80.33807829181495
aF80.4626334519573
aF80.58718861209964
aF80.71174377224199
aF80.83629893238434
aF80.96085409252669
aF81.08540925266904
aF81.20996441281139
aF81.33451957295374
aF81.45907473309609
aF81.58362989323844
aF81.70818505338079
aF81.83274021352314
aF81.95729537366547
aF82.08185053380782
aF82.20640569395017
aF82.33096085409252
aF82.45551601423487
aF82.58007117437722
aF82.70462633451957
aF82.82918149466192
aF82.95373665480427
aF83.07829181494662
aF83.20284697508897
aF83.32740213523131
aF83.45195729537366
aF83.57651245551601
aF83.70106761565836
aF83.82562277580071
aF83.95017793594306
aF84.07473309608541
aF84.19928825622776
aF84.32384341637011
aF84.44839857651246
aF84.57295373665481
aF84.69750889679716
aF84.8220640569395
aF84.94661921708185
aF85.0711743772242
aF85.19572953736655
aF85.3202846975089
aF85.44483985765125
aF85.5693950177936
aF85.69395017793595
aF85.8185053380783
aF85.94306049822065
aF86.067615658363
aF86.19217081850533
aF86.31672597864768
aF86.44128113879003
aF86.56583629893238
aF86.69039145907473
aF86.81494661921708
aF86.93950177935943
aF87.06405693950178
aF87.18861209964413
aF87.31316725978648
aF87.43772241992883
aF87.56227758007117
aF87.68683274021352
aF87.81138790035587
aF87.93594306049822
aF88.06049822064057
aF88.18505338078292
aF88.30960854092527
aF88.43416370106762
aF88.55871886120997
aF88.68327402135232
aF88.80782918149467
aF88.932384341637
aF89.05693950177935
aF89.1814946619217
aF89.30604982206405
aF89.4306049822064
aF89.55516014234875
aF89.6797153024911
aF89.80427046263345
aF89.9288256227758
aF90.05338078291815
aF90.1779359430605
aF90.30249110320284
aF90.42704626334519
aF90.55160142348754
aF90.67615658362989
aF90.80071174377224
aF90.92526690391459
aF91.04982206405694
aF91.17437722419929
aF91.29893238434164
aF91.42348754448399
aF91.54804270462634
aF91.67259786476869
aF91.79715302491103
aF91.92170818505338
aF92.04626334519573
aF92.17081850533808
aF92.29537366548043
aF92.41992882562278
aF92.54448398576513
aF92.66903914590748
aF92.79359430604983
aF92.91814946619218
aF93.04270462633453
aF93.16725978647686
aF93.29181494661921
aF93.41637010676156
aF93.54092526690391
aF93.66548042704626
aF93.79003558718861
aF93.91459074733096
aF94.03914590747331
aF94.16370106761566
aF94.28825622775801
aF94.41281138790036
aF94.5373665480427
aF94.66192170818505
aF94.7864768683274
aF94.91103202846975
aF95.0355871886121
aF95.16014234875445
aF95.2846975088968
aF95.40925266903915
aF95.5338078291815
aF95.65836298932385
aF95.7829181494662
aF95.90747330960853
aF96.03202846975088
aF96.15658362989323
aF96.28113879003558
aF96.40569395017793
aF96.53024911032028
aF96.65480427046263
aF96.77935943060498
aF96.90391459074733
aF97.02846975088968
aF97.15302491103203
aF97.27758007117438
aF97.40213523131672
aF97.52669039145907
aF97.65124555160142
aF97.77580071174377
aF97.90035587188612
aF98.02491103202847
aF98.14946619217082
aF98.27402135231317
aF98.39857651245552
aF98.52313167259787
aF98.64768683274022
aF98.77224199288256
aF98.8967971530249
aF99.02135231316726
aF99.1459074733096
aF99.27046263345196
aF99.3950177935943
aF99.51957295373666
aF99.644128113879
aF99.76868327402136
aF99.8932384341637
atp28
tp29
Rp30
aa(lp31
S'loss'
p32
ag0
(g24
g25
(S'SoftmaxWithLoss'
p33
(lp34
F6.90888
aF2.44455
aF2.58287
aF2.73853
aF2.99528
aF2.9626
aF2.9843
aF2.83187
aF2.78991
aF2.70365
aF2.5527
aF2.72557
aF2.48126
aF2.54295
aF3.01427
aF3.20576
aF2.46574
aF2.36376
aF2.87079
aF2.20412
aF2.78425
aF2.42039
aF2.02372
aF2.74005
aF2.6628
aF2.64469
aF1.9577
aF1.86508
aF2.23026
aF2.5723
aF1.86218
aF2.0643
aF3.44803
aF0.819282
aF1.22504
aF1.93116
aF2.33839
aF2.03734
aF2.58079
aF1.57409
aF1.27128
aF1.77623
aF2.26667
aF2.27113
aF1.3845
aF1.92788
aF1.72271
aF1.60823
aF1.87907
aF2.99514
aF1.43034
aF1.30935
aF1.79438
aF1.52942
aF1.8266
aF1.7896
aF2.20269
aF1.51269
aF1.52783
aF1.04752
aF1.70144
aF2.65213
aF0.846637
aF1.87622
aF2.39218
aF2.18574
aF2.25715
aF1.51353
aF0.757271
aF2.33198
aF1.09104
aF1.75366
aF2.05614
aF1.05564
aF2.27658
aF1.61422
aF1.56651
aF1.77975
aF1.07702
aF0.57305
aF1.52039
aF1.16122
aF1.5383
aF1.09873
aF0.934036
aF1.30513
aF0.461873
aF0.926161
aF0.711572
aF0.674444
aF0.935691
aF1.33852
aF1.56366
aF2.20062
aF1.55774
aF0.969386
aF2.00815
aF1.29376
aF1.36394
aF1.88614
aF1.25043
aF0.32155
aF0.832847
aF1.7876
aF0.527167
aF1.37866
aF1.17688
aF0.25214
aF0.901133
aF1.50927
aF0.925656
aF1.49181
aF0.982994
aF0.536117
aF0.294124
aF0.0616574
aF0.12105
aF0.157543
aF0.123514
aF0.0308295
aF0.482436
aF0.0636379
aF0.120298
aF0.104032
aF0.0277304
aF0.0935387
aF0.0711042
aF0.111671
aF0.164344
aF0.0874007
aF0.139196
aF0.100665
aF0.105622
aF0.25999
aF0.153543
aF0.190328
aF0.170681
aF0.186142
aF0.220428
aF0.318724
aF0.08485
aF0.0744475
aF0.0164655
aF0.0220714
aF0.0474004
aF0.0297818
aF0.0192372
aF0.0433641
aF0.0476185
aF0.0856197
aF0.0104329
aF0.0509241
aF0.0579009
aF0.081582
aF0.162547
aF0.023143
aF0.0240742
aF0.0310151
aF0.117156
aF0.0176143
aF0.0333827
aF0.084943
aF0.0150635
aF0.0940399
aF0.0396645
aF0.100889
aF0.00314648
aF0.103841
aF0.0202505
aF0.212596
aF0.0245737
aF0.0670545
aF0.125379
aF0.262258
aF0.0434183
aF0.0100611
aF0.0383849
aF0.00943621
aF0.0236778
aF0.150664
aF0.0200674
aF0.0753461
aF0.085243
aF0.116124
aF0.0321209
aF0.0511875
aF0.021125
aF0.0687393
aF0.0608279
aF0.0686532
aF0.024081
aF0.0203701
aF0.126885
aF0.0538044
aF0.0327778
aF0.0157439
aF0.0492385
aF0.285419
aF0.191589
aF0.0694491
aF0.0868544
aF0.014369
aF0.00122099
aF0.0184211
aF0.046199
aF0.082335
aF0.158409
aF0.0458388
aF0.263062
aF0.00592615
aF0.127507
aF0.0740863
aF0.159456
aF0.252537
aF0.0105408
aF0.0293492
aF0.0457207
aF0.0372998
aF0.00993184
aF0.106015
aF0.1034
aF0.0249814
aF0.0361489
aF0.0649953
aF0.0502765
aF0.00285997
aF0.071816
aF0.0704743
aF0.0331219
aF0.0437478
aF0.0154204
aF0.0166608
aF0.0131523
aF0.0192761
aF0.0381675
aF0.122911
aF0.012857
aF0.0102716
aF0.0700982
aF0.00233176
aF0.181928
aF0.0583396
aF0.0358732
aF0.00945864
aF0.100668
aF0.0201735
aF0.0506076
aF0.049094
aF0.0448643
aF0.142536
aF0.0244308
aF0.0674993
aF0.0136326
aF0.0363388
aF0.140075
aF0.0551369
aF0.00133075
aF0.00100081
aF0.0206955
aF0.0314952
aF0.00872799
aF0.000747053
aF0.0276683
aF0.103658
aF0.0155937
aF0.00623884
aF0.0351989
aF0.00308714
aF0.222734
aF0.0158591
aF0.000478788
aF0.00662699
aF0.000326055
aF0.000145995
aF0.000435228
aF0.00365753
aF0.00720612
aF0.0355144
aF0.000425362
aF0.00177765
aF0.00128234
aF0.0373816
aF0.0127465
aF0.000218593
aF0.00206518
aF0.00170775
aF0.000271442
aF0.000158748
aF0.00400051
aF0.00841698
aF0.00475277
aF0.000216933
aF0.000372657
aF0.000513396
aF0.000105988
aF0.00146911
aF0.0331475
aF0.000372194
aF0.00408478
aF0.00225591
aF0.000974452
aF0.000151299
aF0.000835931
aF9.56367e-05
aF0.0150809
aF0.000175455
aF0.00248424
aF0.00422583
aF0.000188076
aF0.000974803
aF0.000247862
aF0.000271609
aF0.000257767
aF0.00670019
aF0.00188004
aF0.00614509
aF0.00389978
aF0.00360173
aF0.000312629
aF0.000188582
aF0.00539708
aF0.0222284
aF0.000969094
aF7.0278e-05
aF0.0259733
aF0.000684123
aF0.000257499
aF0.000157042
aF0.0012292
aF0.00431276
aF0.00105472
aF0.0742281
aF0.00280782
aF0.00169524
aF0.00463525
aF0.00265263
aF1.78514e-05
aF0.000601088
aF0.00376027
aF0.00105958
aF0.0304401
aF0.0010244
aF0.0125756
aF0.016482
aF0.0844173
aF0.000257705
aF0.281583
aF0.00627223
aF0.0369459
aF0.00105201
aF3.3993e-05
aF0.00173457
aF6.96872e-05
aF0.000114528
aF0.00547287
aF0.00885497
aF0.00119412
aF8.1172e-05
aF0.000436587
aF0.000278609
aF0.053577
aF0.00399242
aF0.000129556
aF0.00101169
aF0.000142309
aF0.131432
aF0.000398082
aF0.014494
aF0.00133288
aF0.00946408
aF1.14113e-05
aF7.79138e-05
aF0.00589687
aF4.51999e-05
aF0.0203207
aF0.000157205
aF4.19074e-05
aF0.0129846
aF9.29854e-05
aF4.581e-05
aF0.0511079
aF3.51175e-05
aF0.00524085
aF0.00334122
aF0.000381027
aF0.000462757
aF0.000836174
aF0.0009672
aF3.7122e-05
aF0.000201456
aF0.000129449
aF0.00138641
aF0.00301586
aF0.000365228
aF0.00311812
aF4.07853e-05
aF3.12264e-05
aF8.02905e-05
aF0.010923
aF0.00409519
aF0.000515055
aF0.0109514
aF1.20328e-06
aF0.0393137
aF1.99907e-05
aF0.000685582
aF0.000249541
aF9.67399e-05
aF6.90725e-05
aF7.13392e-05
aF8.89527e-05
aF0.009761
aF2.91568e-05
aF0.000243995
aF0.000505967
aF0.0145821
aF0.00137294
aF0.00039141
aF0.00119728
aF0.000517688
aF0.000247799
aF0.0532518
aF0.000936161
aF8.38801e-05
aF7.25488e-05
aF0.000438857
aF0.000676272
aF0.000344261
aF0.000167343
aF0.000112052
aF0.00270251
aF0.00110789
aF6.03546e-05
aF0.00286066
aF0.000540167
aF0.000328393
aF0.000405215
aF2.8e-05
aF0.000244267
aF0.00470959
aF0.000271401
aF3.10682e-05
aF4.11678e-05
aF0.000104429
aF0.000672288
aF0.00157824
aF0.00315787
aF0.0538506
aF0.000213456
aF2.7822e-05
aF2.47409e-05
aF0.00026232
aF0.00993565
aF7.61288e-05
aF0.00400948
aF0.0106736
aF0.000755348
aF0.055611
aF0.000381521
aF8.81645e-06
aF0.000132929
aF0.0524077
aF1.71436e-05
aF1.66081e-05
aF0.000253677
aF8.84668e-05
aF0.00079288
aF0.00702506
aF0.000345811
aF0.000108063
aF3.79846e-05
aF5.49093e-05
aF0.0048188
aF3.97495e-05
aF0.0866554
aF0.0218235
aF0.0005437
aF0.000371931
aF1.97018e-05
aF0.000505003
aF0.0131811
aF0.000124687
aF0.000526418
aF6.93994e-05
aF2.09595e-05
aF5.44193e-05
aF6.95059e-05
aF0.00099319
aF3.02976e-05
aF0.000270695
aF6.15214e-05
aF5.88479e-05
aF0.000233101
aF0.00581966
aF0.000463625
aF0.000274874
aF1.3809e-05
aF7.10285e-06
aF0.00183085
aF0.000685665
aF5.02677e-05
aF0.000185914
aF0.00191795
aF0.000313564
aF0.000168722
aF0.0213045
aF0.00106682
aF8.97669e-05
aF6.04256e-06
aF0.000135439
aF0.000391994
aF0.000124136
aF0.00138624
aF3.37683e-05
aF0.00135333
aF5.21317e-05
aF8.35987e-06
aF0.00414317
aF0.000162815
aF0.000456712
aF8.82682e-05
aF1.11822e-05
aF9.99127e-05
aF0.0111889
aF5.00328e-05
aF0.0320445
aF1.21487e-05
aF2.89236e-05
aF0.000101796
aF7.66266e-05
aF0.00299546
aF4.16837e-05
aF2.66653e-05
aF2.28285e-05
aF0.000356057
aF1.6466e-06
aF0.00074072
aF0.000211565
aF0.00600601
aF0.00139699
aF1.6019e-06
aF0.00102166
aF0.0343882
aF0.00787198
aF0.00152673
aF1.468e-05
aF0.00310917
aF0.00348367
aF2.54463e-05
aF4.13847e-05
aF1.16134e-05
aF5.46233e-05
aF0.000122653
aF0.000118822
aF0.000389386
aF0.000246663
aF2.38905e-05
aF0.00169284
aF0.00128092
aF0.00365558
aF1.29411e-05
aF0.00178208
aF1.401e-05
aF0.000669578
aF0.00242022
aF0.000101011
aF0.00658671
aF1.54229e-06
aF0.000115541
aF0.00608035
aF0.000911775
aF0.000789846
aF0.000917151
aF1.00847e-05
aF0.00025888
aF2.61517e-06
aF0.00012368
aF0.00238266
aF0.00841468
aF1.13328e-05
aF0.000737133
aF0.000597906
aF0.00125764
aF0.00108098
aF0.000305235
aF0.000187567
aF0.00171401
aF5.15762e-05
aF0.00157467
aF1.13504e-05
aF8.84182e-05
aF7.65914e-05
aF4.37964e-05
aF0.000839693
aF2.55255e-05
aF0.0119821
aF0.000173798
aF0.000107552
aF3.63875e-05
aF5.67006e-06
aF3.13586e-05
aF0.00351017
aF0.0494355
aF0.000168784
aF0.000145761
aF0.000293114
aF4.58922e-05
aF0.0557947
aF5.68345e-05
aF0.000283072
aF8.6713e-06
aF1.97442e-05
aF1.22036e-05
aF1.52932e-05
aF0.000124
aF9.90393e-05
aF3.19982e-05
aF0.000883066
aF2.40833e-05
aF0.00022281
aF0.0076164
aF2.74285e-05
aF2.14576e-05
aF0.000665504
aF3.48391e-05
aF0.00379213
aF4.76564e-05
aF0.00443303
aF0.000521376
aF9.84057e-05
aF0.00156291
aF0.00227743
aF0.000272779
aF0.00407076
aF0.00194177
aF0.000667028
aF0.000199254
aF0.0110889
aF0.000501673
aF9.31398e-05
aF5.1759e-05
aF5.16061e-05
aF0.000651127
aF0.00025121
aF0.000453184
aF2.7332e-05
aF0.000169607
aF5.43976e-05
aF0.00165349
aF0.00141993
aF4.31589e-05
aF4.1093e-05
aF0.000822266
aF0.00212025
aF0.00183541
aF0.00237579
aF0.000401543
aF0.00856465
aF0.000593678
aF0.000121414
aF1.3844e-05
aF0.000173407
aF5.17455e-06
aF1.03569e-05
aF0.0010357
aF0.000114985
aF0.00326674
aF7.35792e-06
aF0.000142714
aF1.14371e-05
aF0.00142341
aF1.62507e-05
aF0.000141291
aF2.82536e-05
aF1.21797e-05
aF1.98187e-06
aF0.00134326
aF0.00271608
aF0.00306325
aF1.77883e-05
aF0.000146078
aF7.96065e-05
aF0.000124183
aF0.116615
aF3.06631e-05
aF1.49679e-05
aF0.00068197
aF1.77793e-05
aF0.000103202
aF6.44404e-05
aF1.3834e-05
aF0.00214979
aF0.000191114
aF0.213214
aF0.00538173
aF0.000973779
aF0.000275268
aF0.0012131
aF0.000284496
aF4.34265e-05
aF0.000102944
aF5.91907e-05
aF6.13451e-05
aF0.00508296
aF0.000133783
aF0.0303199
aF0.00105927
aF0.00633067
aF0.00604891
aF0.0111987
aF0.00197373
aF1.88501e-06
aF0.000419265
aF0.0074558
aF0.00531145
aF0.000201238
aF0.00260129
aF0.000774816
aF4.012e-05
aF0.000185166
aF0.00188391
aF0.000367896
aF0.000629095
aF0.000916813
aF1.84513e-05
aF0.0065823
aF0.000577883
aF1.13216e-05
aF0.00251102
aF0.00488601
aF0.000244975
aF3.40124e-06
aF0.0381931
aF0.000588459
aF0.000440837
aF0.0104355
aF2.80236e-05
aF0.00151628
aF1.78439e-05
aF0.010031
aF0.00395284
aF3.58402e-05
aF0.00615954
aF0.00206319
aF1.5539e-05
aF2.04087e-05
aF4.29154e-05
aF0.000344596
aF0.0109025
aF0.000329393
aF0.000281716
aF0.0150173
aF2.6925e-05
aF0.000266546
aF4.47435e-06
aF0.00028366
aF0.00318805
aF0.00099739
aF6.95922e-06
aF2.63604e-05
aF0.000121672
aF0.000154472
aF5.13862e-05
aF6.64516e-05
aF8.56268e-05
aF0.00493875
aF0.00323169
aF2.77758e-05
aF0.000168123
aF0.000124766
aF1.91608e-05
aF0.0228561
aF5.00369e-05
aF0.000358794
aF0.000367467
aF0.0131604
aF6.17623e-05
aF0.000320584
aF0.021578
aF0.000268215
aF8.21846e-06
aF0.000355012
aF0.000307521
aF0.000190131
aF6.01751e-05
aF0.00268134
aF0.000357238
aF1.59013e-05
aF9.75189e-06
aF2.39048e-05
aF0.000165669
aF2.95814e-05
aF0.000220252
aF0.000505449
aF1.21362e-05
aF5.39019e-05
aF0.00033744
aF0.00136197
aF0.0010405
aF0.00011551
aF8.11418e-05
aF0.00150544
aF2.21172e-05
atp35
tp36
Rp37
aa(lp38
S'learning_rate'
p39
ag0
(g24
g25
(S'LearningRate'
p40
(lp41
F0.01
aF0.01
aF0.01
aF0.01
aF0.01
aF0.01
aF0.01
aF0.01
aF0.01
aF0.01
aF0.01
aF0.01
aF0.01
aF0.01
aF0.01
aF0.01
aF0.01
aF0.01
aF0.01
aF0.01
aF0.01
aF0.01
aF0.01
aF0.01
aF0.01
aF0.01
aF0.01
aF0.01
aF0.01
aF0.01
aF0.01
aF0.01
aF0.01
aF0.01
aF0.01
aF0.01
aF0.01
aF0.01
aF0.01
aF0.01
aF0.01
aF0.01
aF0.01
aF0.01
aF0.01
aF0.01
aF0.01
aF0.01
aF0.01
aF0.01
aF0.01
aF0.01
aF0.01
aF0.01
aF0.01
aF0.01
aF0.01
aF0.01
aF0.01
aF0.01
aF0.01
aF0.01
aF0.01
aF0.01
aF0.01
aF0.01
aF0.01
aF0.01
aF0.01
aF0.01
aF0.01
aF0.01
aF0.01
aF0.01
aF0.01
aF0.01
aF0.01
aF0.01
aF0.01
aF0.01
aF0.01
aF0.01
aF0.01
aF0.01
aF0.01
aF0.01
aF0.01
aF0.01
aF0.01
aF0.01
aF0.01
aF0.01
aF0.01
aF0.01
aF0.01
aF0.01
aF0.01
aF0.01
aF0.01
aF0.01
aF0.01
aF0.01
aF0.01
aF0.01
aF0.01
aF0.01
aF0.01
aF0.01
aF0.01
aF0.01
aF0.01
aF0.01
aF0.01
aF0.01
aF0.01
aF0.01
aF0.01
aF0.01
aF0.01
aF0.01
aF0.01
aF0.01
aF0.01
aF0.01
aF0.01
aF0.01
aF0.01
aF0.01
aF0.01
aF0.01
aF0.01
aF0.01
aF0.01
aF0.01
aF0.01
aF0.01
aF0.01
aF0.01
aF0.01
aF0.01
aF0.01
aF0.01
aF0.01
aF0.01
aF0.01
aF0.01
aF0.01
aF0.01
aF0.01
aF0.01
aF0.01
aF0.01
aF0.01
aF0.01
aF0.01
aF0.01
aF0.01
aF0.01
aF0.01
aF0.01
aF0.01
aF0.01
aF0.01
aF0.01
aF0.01
aF0.01
aF0.01
aF0.01
aF0.01
aF0.01
aF0.01
aF0.01
aF0.01
aF0.01
aF0.01
aF0.01
aF0.01
aF0.01
aF0.01
aF0.01
aF0.01
aF0.01
aF0.01
aF0.01
aF0.01
aF0.01
aF0.01
aF0.01
aF0.01
aF0.01
aF0.01
aF0.01
aF0.01
aF0.01
aF0.01
aF0.01
aF0.01
aF0.01
aF0.01
aF0.01
aF0.01
aF0.01
aF0.01
aF0.01
aF0.01
aF0.01
aF0.01
aF0.01
aF0.01
aF0.01
aF0.01
aF0.01
aF0.01
aF0.01
aF0.01
aF0.01
aF0.01
aF0.01
aF0.01
aF0.01
aF0.01
aF0.01
aF0.01
aF0.01
aF0.01
aF0.01
aF0.01
aF0.01
aF0.01
aF0.01
aF0.01
aF0.01
aF0.01
aF0.01
aF0.01
aF0.01
aF0.01
aF0.01
aF0.01
aF0.01
aF0.01
aF0.01
aF0.01
aF0.01
aF0.01
aF0.01
aF0.01
aF0.01
aF0.01
aF0.01
aF0.01
aF0.01
aF0.01
aF0.01
aF0.01
aF0.01
aF0.01
aF0.01
aF0.01
aF0.01
aF0.01
aF0.01
aF0.01
aF0.01
aF0.01
aF0.001
aF0.001
aF0.001
aF0.001
aF0.001
aF0.001
aF0.001
aF0.001
aF0.001
aF0.001
aF0.001
aF0.001
aF0.001
aF0.001
aF0.001
aF0.001
aF0.001
aF0.001
aF0.001
aF0.001
aF0.001
aF0.001
aF0.001
aF0.001
aF0.001
aF0.001
aF0.001
aF0.001
aF0.001
aF0.001
aF0.001
aF0.001
aF0.001
aF0.001
aF0.001
aF0.001
aF0.001
aF0.001
aF0.001
aF0.001
aF0.001
aF0.001
aF0.001
aF0.001
aF0.001
aF0.001
aF0.001
aF0.001
aF0.001
aF0.001
aF0.001
aF0.001
aF0.001
aF0.001
aF0.001
aF0.001
aF0.001
aF0.001
aF0.001
aF0.001
aF0.001
aF0.001
aF0.001
aF0.001
aF0.001
aF0.001
aF0.001
aF0.001
aF0.001
aF0.001
aF0.001
aF0.001
aF0.001
aF0.001
aF0.001
aF0.001
aF0.001
aF0.001
aF0.001
aF0.001
aF0.001
aF0.001
aF0.001
aF0.001
aF0.001
aF0.001
aF0.001
aF0.001
aF0.001
aF0.001
aF0.001
aF0.001
aF0.001
aF0.001
aF0.001
aF0.001
aF0.001
aF0.001
aF0.001
aF0.001
aF0.001
aF0.001
aF0.001
aF0.001
aF0.001
aF0.001
aF0.001
aF0.001
aF0.001
aF0.001
aF0.001
aF0.001
aF0.001
aF0.001
aF0.001
aF0.001
aF0.001
aF0.001
aF0.001
aF0.001
aF0.001
aF0.001
aF0.001
aF0.001
aF0.001
aF0.001
aF0.001
aF0.001
aF0.001
aF0.001
aF0.001
aF0.001
aF0.001
aF0.001
aF0.001
aF0.001
aF0.001
aF0.001
aF0.001
aF0.001
aF0.001
aF0.001
aF0.001
aF0.001
aF0.001
aF0.001
aF0.001
aF0.001
aF0.001
aF0.001
aF0.001
aF0.001
aF0.001
aF0.001
aF0.001
aF0.001
aF0.001
aF0.001
aF0.001
aF0.001
aF0.001
aF0.001
aF0.001
aF0.001
aF0.001
aF0.001
aF0.001
aF0.001
aF0.001
aF0.001
aF0.001
aF0.001
aF0.001
aF0.001
aF0.001
aF0.001
aF0.001
aF0.001
aF0.001
aF0.001
aF0.001
aF0.001
aF0.001
aF0.001
aF0.001
aF0.001
aF0.001
aF0.001
aF0.001
aF0.001
aF0.001
aF0.001
aF0.001
aF0.001
aF0.001
aF0.001
aF0.001
aF0.001
aF0.001
aF0.001
aF0.001
aF0.001
aF0.001
aF0.001
aF0.001
aF0.001
aF0.001
aF0.001
aF0.001
aF0.001
aF0.001
aF0.001
aF0.001
aF0.001
aF0.001
aF0.001
aF0.001
aF0.001
aF0.001
aF0.001
aF0.001
aF0.001
aF0.001
aF0.001
aF0.001
aF0.001
aF0.001
aF0.001
aF0.001
aF0.001
aF0.001
aF0.001
aF0.001
aF0.001
aF0.001
aF0.001
aF0.001
aF0.001
aF0.001
aF0.001
aF0.001
aF0.001
aF0.001
aF0.001
aF0.001
aF0.001
aF0.001
aF0.001
aF0.001
aF0.001
aF0.001
aF0.001
aF0.001
aF0.001
aF0.001
aF0.001
aF0.001
aF0.001
aF0.001
aF0.001
aF0.001
aF0.001
aF0.001
aF0.001
aF0.001
aF0.0001
aF0.0001
aF0.0001
aF0.0001
aF0.0001
aF0.0001
aF0.0001
aF0.0001
aF0.0001
aF0.0001
aF0.0001
aF0.0001
aF0.0001
aF0.0001
aF0.0001
aF0.0001
aF0.0001
aF0.0001
aF0.0001
aF0.0001
aF0.0001
aF0.0001
aF0.0001
aF0.0001
aF0.0001
aF0.0001
aF0.0001
aF0.0001
aF0.0001
aF0.0001
aF0.0001
aF0.0001
aF0.0001
aF0.0001
aF0.0001
aF0.0001
aF0.0001
aF0.0001
aF0.0001
aF0.0001
aF0.0001
aF0.0001
aF0.0001
aF0.0001
aF0.0001
aF0.0001
aF0.0001
aF0.0001
aF0.0001
aF0.0001
aF0.0001
aF0.0001
aF0.0001
aF0.0001
aF0.0001
aF0.0001
aF0.0001
aF0.0001
aF0.0001
aF0.0001
aF0.0001
aF0.0001
aF0.0001
aF0.0001
aF0.0001
aF0.0001
aF0.0001
aF0.0001
aF0.0001
aF0.0001
aF0.0001
aF0.0001
aF0.0001
aF0.0001
aF0.0001
aF0.0001
aF0.0001
aF0.0001
aF0.0001
aF0.0001
aF0.0001
aF0.0001
aF0.0001
aF0.0001
aF0.0001
aF0.0001
aF0.0001
aF0.0001
aF0.0001
aF0.0001
aF0.0001
aF0.0001
aF0.0001
aF0.0001
aF0.0001
aF0.0001
aF0.0001
aF0.0001
aF0.0001
aF0.0001
aF0.0001
aF0.0001
aF0.0001
aF0.0001
aF0.0001
aF0.0001
aF0.0001
aF0.0001
aF0.0001
aF0.0001
aF0.0001
aF0.0001
aF0.0001
aF0.0001
aF0.0001
aF0.0001
aF0.0001
aF0.0001
aF0.0001
aF0.0001
aF0.0001
aF0.0001
aF0.0001
aF0.0001
aF0.0001
aF0.0001
aF0.0001
aF0.0001
aF0.0001
aF0.0001
aF0.0001
aF0.0001
aF0.0001
aF0.0001
aF0.0001
aF0.0001
aF0.0001
aF0.0001
aF0.0001
aF0.0001
aF0.0001
aF0.0001
aF0.0001
aF0.0001
aF0.0001
aF0.0001
aF0.0001
aF0.0001
aF0.0001
aF0.0001
aF0.0001
aF0.0001
aF0.0001
aF0.0001
aF0.0001
aF0.0001
aF0.0001
aF0.0001
aF0.0001
aF0.0001
aF0.0001
aF0.0001
aF0.0001
aF0.0001
aF0.0001
aF0.0001
aF0.0001
aF0.0001
aF0.0001
aF0.0001
aF0.0001
aF0.0001
aF0.0001
aF0.0001
aF0.0001
aF0.0001
aF0.0001
aF0.0001
aF0.0001
aF0.0001
aF0.0001
aF0.0001
aF0.0001
aF0.0001
aF0.0001
aF0.0001
aF0.0001
aF0.0001
aF0.0001
aF0.0001
aF0.0001
aF0.0001
aF0.0001
aF0.0001
aF0.0001
aF0.0001
aF0.0001
aF0.0001
aF0.0001
aF0.0001
aF0.0001
aF0.0001
aF0.0001
aF0.0001
aF0.0001
aF0.0001
aF0.0001
aF0.0001
aF0.0001
aF0.0001
aF0.0001
aF0.0001
aF0.0001
aF0.0001
aF0.0001
aF0.0001
aF0.0001
aF0.0001
aF0.0001
aF0.0001
aF0.0001
aF0.0001
aF0.0001
aF0.0001
aF0.0001
aF0.0001
aF0.0001
aF0.0001
aF0.0001
aF0.0001
aF0.0001
aF0.0001
aF0.0001
aF0.0001
aF0.0001
aF0.0001
aF0.0001
aF0.0001
aF0.0001
aF0.0001
aF0.0001
aF0.0001
aF0.0001
aF0.0001
aF0.0001
aF0.0001
aF0.0001
aF0.0001
aF0.0001
aF0.0001
aF0.0001
aF0.0001
aF0.0001
aF0.0001
aF0.0001
aF0.0001
aF0.0001
aF0.0001
aF0.0001
aF0.0001
aF0.0001
aF0.0001
aF0.0001
aF0.0001
aF0.0001
aF1e-05
aF1e-05
aF1e-05
aF1e-05
aF1e-05
aF1e-05
aF1e-05
aF1e-05
atp42
tp43
Rp44
aatp45
Rp46
sS'val_outputs'
p47
g20
((lp48
(lp49
g23
ag0
(g24
g25
(g26
(lp50
I0
aF1.0
aF2.0
aF3.0
aF4.0
aF5.0
aF6.0
aF7.0
aF8.0
aF9.0
aF10.0
aF11.0
aF12.0
aF13.0
aF14.0
aF15.0
aF16.0
aF17.0
aF18.0
aF19.0
aF20.0
aF21.0
aF22.0
aF23.0
aF24.0
aF25.0
aF26.0
aF27.0
aF28.0
aF29.0
aF30.0
aF31.0
aF32.0
aF33.0
aF34.0
aF35.0
aF36.0
aF37.0
aF38.0
aF39.0
aF40.0
aF41.0
aF42.0
aF43.0
aF44.0
aF45.0
aF46.0
aF47.0
aF48.0
aF49.0
aF50.0
aF51.0
aF52.0
aF53.0
aF54.0
aF55.0
aF56.0
aF57.0
aF58.0
aF59.0
aF60.0
aF61.0
aF62.0
aF63.0
aF64.0
aF65.0
aF66.0
aF67.0
aF68.0
aF69.0
aF70.0
aF71.0
aF72.0
aF73.0
aF74.0
aF75.0
aF76.0
aF77.0
aF78.0
aF79.0
aF80.0
aF81.0
aF82.0
aF83.0
aF84.0
aF85.0
aF86.0
aF87.0
aF88.0
aF89.0
aF90.0
aF91.0
aF92.0
aF93.0
aF94.0
aF95.0
aF96.0
aF97.0
aF98.0
aF99.0
aF100.0
atp51
tp52
Rp53
aa(lp54
S'accuracy'
p55
ag0
(g24
g25
(S'Accuracy'
p56
(lp57
F0.0
aF0.288667
aF0.332833
aF0.419334
aF0.5175
aF0.569333
aF0.705666
aF0.743
aF0.772833
aF0.768499
aF0.815333
aF0.792167
aF0.8245
aF0.832833
aF0.830333
aF0.952167
aF0.964501
aF0.940167
aF0.962834
aF0.984334
aF0.980501
aF0.967001
aF0.983334
aF0.978334
aF0.984167
aF0.986834
aF0.984834
aF0.989334
aF0.984834
aF0.990501
aF0.977001
aF0.984667
aF0.991834
aF0.988167
aF0.995334
aF0.9965
aF0.996333
aF0.996334
aF0.996334
aF0.9965
aF0.996834
aF0.996167
aF0.997167
aF0.9965
aF0.996334
aF0.996667
aF0.996667
aF0.997167
aF0.996834
aF0.996334
aF0.997
aF0.997333
aF0.9965
aF0.997167
aF0.9975
aF0.997333
aF0.997
aF0.997
aF0.9975
aF0.997333
aF0.997167
aF0.997167
aF0.998
aF0.997167
aF0.997167
aF0.998
aF0.997833
aF0.997833
aF0.997667
aF0.997667
aF0.9975
aF0.997667
aF0.997667
aF0.997667
aF0.997667
aF0.9975
aF0.997333
aF0.997333
aF0.9975
aF0.9975
aF0.997667
aF0.997667
aF0.9975
aF0.9975
aF0.997333
aF0.997333
aF0.997167
aF0.997333
aF0.997333
aF0.997333
aF0.997333
aF0.9975
aF0.9975
aF0.9975
aF0.9975
aF0.997333
aF0.9975
aF0.997167
aF0.997333
aF0.9975
aF0.9975
atp58
tp59
Rp60
aa(lp61
S'loss'
p62
ag0
(g24
g25
(S'SoftmaxWithLoss'
p63
(lp64
F6.90901
aF2.73101
aF2.47161
aF2.27949
aF1.94164
aF1.81791
aF1.54229
aF1.43989
aF1.30719
aF1.37068
aF1.16821
aF1.22691
aF1.13985
aF1.10482
aF1.12015
aF0.160387
aF0.102376
aF0.184328
aF0.104908
aF0.0580752
aF0.0599057
aF0.103847
aF0.048792
aF0.0583681
aF0.0441256
aF0.0369692
aF0.0418649
aF0.0368995
aF0.0457383
aF0.0276878
aF0.0710598
aF0.0572301
aF0.0250342
aF0.0356407
aF0.0148312
aF0.0124507
aF0.0110412
aF0.011007
aF0.00996108
aF0.00988955
aF0.00916944
aF0.0101402
aF0.00966279
aF0.00924742
aF0.00963402
aF0.00871025
aF0.00898042
aF0.00923744
aF0.00907395
aF0.0102907
aF0.00859407
aF0.00821554
aF0.00926353
aF0.00855917
aF0.00671145
aF0.00653495
aF0.00741161
aF0.00782477
aF0.00715259
aF0.00815326
aF0.00957227
aF0.00789599
aF0.00714975
aF0.00853766
aF0.00711136
aF0.00752564
aF0.00778928
aF0.0071456
aF0.00699638
aF0.00730424
aF0.0074241
aF0.00733666
aF0.00722477
aF0.00709737
aF0.00708434
aF0.0071987
aF0.00707046
aF0.00682251
aF0.00689287
aF0.00676171
aF0.00680147
aF0.0067366
aF0.00672103
aF0.00670792
aF0.00663637
aF0.00682128
aF0.00691618
aF0.0070402
aF0.00705411
aF0.00705974
aF0.00706504
aF0.00695355
aF0.00704968
aF0.00711163
aF0.00709371
aF0.00726221
aF0.00721994
aF0.00721066
aF0.00803273
aF0.00723876
aF0.00722427
atp65
tp66
Rp67
aatp68
Rp69
sS'loaded_snapshot_epoch'
p70
NsS'pretrained_model'
p71
NsS'deploy_file'
p72
S'deploy.prototxt'
p73
sS'current_iteration'
p74
I56200
sS'gpu_count'
p75
I1
sS'rms_decay'
p76
F0.99
sS'traces_interval'
p77
I0
sS'train_epochs'
p78
I100
sS'network'
p79
ccaffe_pb2
NetParameter
p80
(tRp81
(dp82
S'serialized'
p83
S'\n\nSqueezenet\xa2\x065\n\ntrain-data\x12\x04Data"\x04data"\x05labelB\x07"\x05train\xa2\x06\x05\x10\x01\x18\xe3\x01\xda\x06\x02  \xa2\x06/\n\x08val-data\x12\x04Data"\x04data"\x05labelB\x05"\x03val\xa2\x06\x03\x18\xe3\x01\xda\x06\x02 \x19\xa2\x064\n\x05conv1\x12\x0bConvolution\x1a\x04data"\x05conv1\xd2\x06\x10\x08@ \x030\x02:\x08\n\x06xavier\xa2\x06 \n\nrelu_conv1\x12\x04ReLU\x1a\x05conv1"\x05conv1\xa2\x06\'\n\x05pool1\x12\x07Pooling\x1a\x05conv1"\x05pool1\xca\x07\x06\x08\x00\x10\x03\x18\x02\xa2\x06I\n\x10fire2/squeeze1x1\x12\x0bConvolution\x1a\x05pool1"\x10fire2/squeeze1x1\xd2\x06\x0e\x08\x10 \x01:\x08\n\x06xavier\xa2\x06A\n\x15fire2/relu_squeeze1x1\x12\x04ReLU\x1a\x10fire2/squeeze1x1"\x10fire2/squeeze1x1\xa2\x06R\n\x0ffire2/expand1x1\x12\x0bConvolution\x1a\x10fire2/squeeze1x1"\x0ffire2/expand1x1\xd2\x06\x0e\x08@ \x01:\x08\n\x06xavier\xa2\x06>\n\x14fire2/relu_expand1x1\x12\x04ReLU\x1a\x0ffire2/expand1x1"\x0ffire2/expand1x1\xa2\x06T\n\x0ffire2/expand3x3\x12\x0bConvolution\x1a\x10fire2/squeeze1x1"\x0ffire2/expand3x3\xd2\x06\x10\x08@\x18\x01 \x03:\x08\n\x06xavier\xa2\x06>\n\x14fire2/relu_expand3x3\x12\x04ReLU\x1a\x0ffire2/expand3x3"\x0ffire2/expand3x3\xa2\x06F\n\x0cfire2/concat\x12\x06Concat\x1a\x0ffire2/expand1x1\x1a\x0ffire2/expand3x3"\x0cfire2/concat\xa2\x06P\n\x10fire3/squeeze1x1\x12\x0bConvolution\x1a\x0cfire2/concat"\x10fire3/squeeze1x1\xd2\x06\x0e\x08\x10 \x01:\x08\n\x06xavier\xa2\x06A\n\x15fire3/relu_squeeze1x1\x12\x04ReLU\x1a\x10fire3/squeeze1x1"\x10fire3/squeeze1x1\xa2\x06R\n\x0ffire3/expand1x1\x12\x0bConvolution\x1a\x10fire3/squeeze1x1"\x0ffire3/expand1x1\xd2\x06\x0e\x08@ \x01:\x08\n\x06xavier\xa2\x06>\n\x14fire3/relu_expand1x1\x12\x04ReLU\x1a\x0ffire3/expand1x1"\x0ffire3/expand1x1\xa2\x06T\n\x0ffire3/expand3x3\x12\x0bConvolution\x1a\x10fire3/squeeze1x1"\x0ffire3/expand3x3\xd2\x06\x10\x08@\x18\x01 \x03:\x08\n\x06xavier\xa2\x06>\n\x14fire3/relu_expand3x3\x12\x04ReLU\x1a\x0ffire3/expand3x3"\x0ffire3/expand3x3\xa2\x06F\n\x0cfire3/concat\x12\x06Concat\x1a\x0ffire3/expand1x1\x1a\x0ffire3/expand3x3"\x0cfire3/concat\xa2\x06.\n\x05pool3\x12\x07Pooling\x1a\x0cfire3/concat"\x05pool3\xca\x07\x06\x08\x00\x10\x03\x18\x02\xa2\x06I\n\x10fire4/squeeze1x1\x12\x0bConvolution\x1a\x05pool3"\x10fire4/squeeze1x1\xd2\x06\x0e\x08  \x01:\x08\n\x06xavier\xa2\x06A\n\x15fire4/relu_squeeze1x1\x12\x04ReLU\x1a\x10fire4/squeeze1x1"\x10fire4/squeeze1x1\xa2\x06S\n\x0ffire4/expand1x1\x12\x0bConvolution\x1a\x10fire4/squeeze1x1"\x0ffire4/expand1x1\xd2\x06\x0f\x08\x80\x01 \x01:\x08\n\x06xavier\xa2\x06>\n\x14fire4/relu_expand1x1\x12\x04ReLU\x1a\x0ffire4/expand1x1"\x0ffire4/expand1x1\xa2\x06U\n\x0ffire4/expand3x3\x12\x0bConvolution\x1a\x10fire4/squeeze1x1"\x0ffire4/expand3x3\xd2\x06\x11\x08\x80\x01\x18\x01 \x03:\x08\n\x06xavier\xa2\x06>\n\x14fire4/relu_expand3x3\x12\x04ReLU\x1a\x0ffire4/expand3x3"\x0ffire4/expand3x3\xa2\x06F\n\x0cfire4/concat\x12\x06Concat\x1a\x0ffire4/expand1x1\x1a\x0ffire4/expand3x3"\x0cfire4/concat\xa2\x06P\n\x10fire5/squeeze1x1\x12\x0bConvolution\x1a\x0cfire4/concat"\x10fire5/squeeze1x1\xd2\x06\x0e\x08  \x01:\x08\n\x06xavier\xa2\x06A\n\x15fire5/relu_squeeze1x1\x12\x04ReLU\x1a\x10fire5/squeeze1x1"\x10fire5/squeeze1x1\xa2\x06S\n\x0ffire5/expand1x1\x12\x0bConvolution\x1a\x10fire5/squeeze1x1"\x0ffire5/expand1x1\xd2\x06\x0f\x08\x80\x01 \x01:\x08\n\x06xavier\xa2\x06>\n\x14fire5/relu_expand1x1\x12\x04ReLU\x1a\x0ffire5/expand1x1"\x0ffire5/expand1x1\xa2\x06U\n\x0ffire5/expand3x3\x12\x0bConvolution\x1a\x10fire5/squeeze1x1"\x0ffire5/expand3x3\xd2\x06\x11\x08\x80\x01\x18\x01 \x03:\x08\n\x06xavier\xa2\x06>\n\x14fire5/relu_expand3x3\x12\x04ReLU\x1a\x0ffire5/expand3x3"\x0ffire5/expand3x3\xa2\x06F\n\x0cfire5/concat\x12\x06Concat\x1a\x0ffire5/expand1x1\x1a\x0ffire5/expand3x3"\x0cfire5/concat\xa2\x06.\n\x05pool5\x12\x07Pooling\x1a\x0cfire5/concat"\x05pool5\xca\x07\x06\x08\x00\x10\x03\x18\x02\xa2\x06I\n\x10fire6/squeeze1x1\x12\x0bConvolution\x1a\x05pool5"\x10fire6/squeeze1x1\xd2\x06\x0e\x080 \x01:\x08\n\x06xavier\xa2\x06A\n\x15fire6/relu_squeeze1x1\x12\x04ReLU\x1a\x10fire6/squeeze1x1"\x10fire6/squeeze1x1\xa2\x06S\n\x0ffire6/expand1x1\x12\x0bConvolution\x1a\x10fire6/squeeze1x1"\x0ffire6/expand1x1\xd2\x06\x0f\x08\xc0\x01 \x01:\x08\n\x06xavier\xa2\x06>\n\x14fire6/relu_expand1x1\x12\x04ReLU\x1a\x0ffire6/expand1x1"\x0ffire6/expand1x1\xa2\x06U\n\x0ffire6/expand3x3\x12\x0bConvolution\x1a\x10fire6/squeeze1x1"\x0ffire6/expand3x3\xd2\x06\x11\x08\xc0\x01\x18\x01 \x03:\x08\n\x06xavier\xa2\x06>\n\x14fire6/relu_expand3x3\x12\x04ReLU\x1a\x0ffire6/expand3x3"\x0ffire6/expand3x3\xa2\x06F\n\x0cfire6/concat\x12\x06Concat\x1a\x0ffire6/expand1x1\x1a\x0ffire6/expand3x3"\x0cfire6/concat\xa2\x06P\n\x10fire7/squeeze1x1\x12\x0bConvolution\x1a\x0cfire6/concat"\x10fire7/squeeze1x1\xd2\x06\x0e\x080 \x01:\x08\n\x06xavier\xa2\x06A\n\x15fire7/relu_squeeze1x1\x12\x04ReLU\x1a\x10fire7/squeeze1x1"\x10fire7/squeeze1x1\xa2\x06S\n\x0ffire7/expand1x1\x12\x0bConvolution\x1a\x10fire7/squeeze1x1"\x0ffire7/expand1x1\xd2\x06\x0f\x08\xc0\x01 \x01:\x08\n\x06xavier\xa2\x06>\n\x14fire7/relu_expand1x1\x12\x04ReLU\x1a\x0ffire7/expand1x1"\x0ffire7/expand1x1\xa2\x06U\n\x0ffire7/expand3x3\x12\x0bConvolution\x1a\x10fire7/squeeze1x1"\x0ffire7/expand3x3\xd2\x06\x11\x08\xc0\x01\x18\x01 \x03:\x08\n\x06xavier\xa2\x06>\n\x14fire7/relu_expand3x3\x12\x04ReLU\x1a\x0ffire7/expand3x3"\x0ffire7/expand3x3\xa2\x06F\n\x0cfire7/concat\x12\x06Concat\x1a\x0ffire7/expand1x1\x1a\x0ffire7/expand3x3"\x0cfire7/concat\xa2\x06P\n\x10fire8/squeeze1x1\x12\x0bConvolution\x1a\x0cfire7/concat"\x10fire8/squeeze1x1\xd2\x06\x0e\x08@ \x01:\x08\n\x06xavier\xa2\x06A\n\x15fire8/relu_squeeze1x1\x12\x04ReLU\x1a\x10fire8/squeeze1x1"\x10fire8/squeeze1x1\xa2\x06S\n\x0ffire8/expand1x1\x12\x0bConvolution\x1a\x10fire8/squeeze1x1"\x0ffire8/expand1x1\xd2\x06\x0f\x08\x80\x02 \x01:\x08\n\x06xavier\xa2\x06>\n\x14fire8/relu_expand1x1\x12\x04ReLU\x1a\x0ffire8/expand1x1"\x0ffire8/expand1x1\xa2\x06U\n\x0ffire8/expand3x3\x12\x0bConvolution\x1a\x10fire8/squeeze1x1"\x0ffire8/expand3x3\xd2\x06\x11\x08\x80\x02\x18\x01 \x03:\x08\n\x06xavier\xa2\x06>\n\x14fire8/relu_expand3x3\x12\x04ReLU\x1a\x0ffire8/expand3x3"\x0ffire8/expand3x3\xa2\x06F\n\x0cfire8/concat\x12\x06Concat\x1a\x0ffire8/expand1x1\x1a\x0ffire8/expand3x3"\x0cfire8/concat\xa2\x06P\n\x10fire9/squeeze1x1\x12\x0bConvolution\x1a\x0cfire8/concat"\x10fire9/squeeze1x1\xd2\x06\x0e\x08@ \x01:\x08\n\x06xavier\xa2\x06A\n\x15fire9/relu_squeeze1x1\x12\x04ReLU\x1a\x10fire9/squeeze1x1"\x10fire9/squeeze1x1\xa2\x06S\n\x0ffire9/expand1x1\x12\x0bConvolution\x1a\x10fire9/squeeze1x1"\x0ffire9/expand1x1\xd2\x06\x0f\x08\x80\x02 \x01:\x08\n\x06xavier\xa2\x06>\n\x14fire9/relu_expand1x1\x12\x04ReLU\x1a\x0ffire9/expand1x1"\x0ffire9/expand1x1\xa2\x06U\n\x0ffire9/expand3x3\x12\x0bConvolution\x1a\x10fire9/squeeze1x1"\x0ffire9/expand3x3\xd2\x06\x11\x08\x80\x02\x18\x01 \x03:\x08\n\x06xavier\xa2\x06>\n\x14fire9/relu_expand3x3\x12\x04ReLU\x1a\x0ffire9/expand3x3"\x0ffire9/expand3x3\xa2\x06F\n\x0cfire9/concat\x12\x06Concat\x1a\x0ffire9/expand1x1\x1a\x0ffire9/expand3x3"\x0cfire9/concat\xa2\x064\n\x05drop9\x12\x07Dropout\x1a\x0cfire9/concat"\x0cfire9/concat\xe2\x06\x05\r\x00\x00\x00?\xa2\x06I\n\x06conv10\x12\x0bConvolution\x1a\x0cfire9/concat"\x06conv10\xd2\x06\x1b\x08\xe8\x07 \x01:\x14\n\x08gaussian-\x00\x00\x00\x005\n\xd7#<\xa2\x06#\n\x0brelu_conv10\x12\x04ReLU\x1a\x06conv10"\x06conv10\xa2\x06(\n\x06pool10\x12\x07Pooling\x1a\x06conv10"\x06pool10\xca\x07\x04\x08\x01`\x01\xa2\x064\n\x08accuracy\x12\x08Accuracy\x1a\x06pool10\x1a\x05label"\x08accuracyB\x05"\x03val\xa2\x066\n\x04loss\x12\x0fSoftmaxWithLoss\x1a\x06pool10\x1a\x05label"\x04lossJ\x08"\x06deploy\xa2\x06-\n\x07softmax\x12\x07Softmax\x1a\x06pool10"\x07softmaxB\x08"\x06deploy'
p84
sbsS'use_mean'
p85
Vimage
p86
sS'model_file'
p87
S'original.prototxt'
p88
sS'job_dir'
p89
S'/home/fei/DIGITS/digits/jobs/20180810-204659-701e'
p90
sS'receiving_val_output'
p91
I00
sS'parents'
p92
NsS'caffe_flavor'
p93
S'BVLC'
p94
sS'timeline_traces'
p95
(lp96
sS'lr_policy'
p97
(dp98
S'policy'
p99
Vstep
p100
sS'stepsize'
p101
F33.0
sS'gamma'
p102
F0.1
ssS'crop_size'
p103
I227
sS'receiving_train_output'
p104
I00
sS'val_interval'
p105
F1.0
sS'current_epoch'
p106
F100.0
sS'random_seed'
p107
NsS'saving_snapshot'
p108
I00
sS'pickver_task_caffe_train'
p109
I5
sg39
F0.01
sS'loaded_snapshot_file'
p110
NsS'batch_size'
p111
NsS'digits_version'
p112
S'6.1.1'
p113
sS'job'
p114
g4
sS'pickver_task_train'
p115
I2
sS'current_resources'
p116
NsS'pickver_task'
p117
I1
sS'job_id'
p118
S'20180810-204659-701e'
p119
sS'exception'
p120
NsS'data_aug'
p121
(dp122
S'scale'
p123
F0.0
sS'hsv_use'
p124
I00
sS'flip'
p125
Vnone
p126
sS'quad_rot'
p127
Vnone
p128
sS'noise'
p129
F0.0
sS'whitening'
p130
I00
sS'hsv_h'
p131
F0.02
sS'hsv_s'
p132
F0.04
sS'rot'
p133
I0
sS'hsv_v'
p134
F0.06
sS'contrast'
p135
F0.0
ssS'selected_gpus'
p136
NsS'solver'
p137
ccaffe_pb2
SolverParameter
p138
(tRp139
(dp140
g83
S'\x18\xf0\x01 \xb2\x04-\n\xd7#<0F8\x88\xb7\x03B\x04stepM\xcd\xcc\xcc=]fff?e\x17\xb7\xd18h\xf2\x90\x01p\xe8Wz\x08snapshot\x88\x01\x01\xc2\x01\x12train_val.prototxt\xf0\x01\x00'
p141
sbsS'snapshot_prefix'
p142
S'snapshot'
p143
sS'traceback'
p144
NsS'framework_id'
p145
S'caffe'
p146
sS'status_history'
p147
(lp148
((idigits.status
Status
p149
S'I'
p151
bF1533944819.1625
tp152
a((idigits.status
Status
p153
S'W'
p154
bF1533944820.44266
tp155
a((idigits.status
Status
p156
S'R'
p157
bF1533969160.627774
tp158
a((idigits.status
Status
p159
S'D'
p160
bF1533981004.521989
tp161
asS'last_train_update'
p162
F1533980976.860614
sS'train_val_file'
p163
S'train_val.prototxt'
p164
sS'image_mean'
p165
NsS'batch_accumulation'
p166
NsS'progress'
p167
F1.0
sS'log_file'
p168
S'caffe_output.log'
p169
sS'solver_file'
p170
S'solver.prototxt'
p171
sS'solver_type'
p172
VSGD
p173
sbasS'pickver_job'
p174
I2
sS'dataset_id'
p175
S'20180810-200238-65f4'
p176
sS'pickver_job_model_image'
p177
I1
sg120
NsS'group'
p178
V
p179
sS'persistent'
p180
I01
sS'_name'
p181
Vreal_robot_256_Squeezenet
p182
sS'form_data'
p183
(dp184
S'form.standard_networks.data'
p185
VNone
p186
sS'form.learning_rate.data'
p187
(lp188
F0.01
asS'form.model_name.data'
p189
g182
sS'form.aug_flip.data'
p190
g126
sS'form.select_gpus.data'
p191
(lp192
sS'form.framework.data'
p193
Vcaffe
p194
sS'form.dataset.data'
p195
V20180810-200238-65f4
p196
sS'form.python_layer_from_client.data'
p197
I00
sS'form.lr_multistep_values.data'
p198
V50,85
p199
sS'form.aug_hsv_s.data'
p200
F0.04
sS'form.lr_sigmoid_gamma.data'
p201
F0.1
sS'form.lr_policy.data'
p202
g100
sS'form.random_seed.data'
p203
NsS'form.aug_rot.data'
p204
I0
sS'form.previous_networks.data'
p205
V20180810-204617-b480
p206
sS'form.python_layer_client_file.data'
p207
g179
sS'form.aug_quad_rot.data'
p208
g128
sS'form.rms_decay.data'
p209
F0.99
sS'form.method.data'
p210
Vprevious
p211
sS'form.lr_sigmoid_step.data'
p212
F50.0
sS'form.crop_size.data'
p213
NsS'form.select_gpu_count.data'
p214
I1
sS'form.python_layer_server_file.data'
p215
g179
sS'form.pretrained_networks.data'
p216
VNone
p217
sS'form.solver_type.data'
p218
g173
sS'form.aug_noise.data'
p219
F0.0
sS'form.select_gpus_list.data'
p220
g179
sS'form.traces_interval.data'
p221
I0
sS'form.shuffle.data'
p222
I01
sS'form.aug_scale.data'
p223
F0.0
sS'form.batch_accumulation.data'
p224
NsS'form.custom_network.data'
p225
g179
sS'form.group_name.data'
p226
g179
sS'form.val_interval.data'
p227
F1.0
sS'form.lr_inv_gamma.data'
p228
F0.1
sS'form.lr_poly_power.data'
p229
F3.0
sS'form.snapshot_interval.data'
p230
F20.0
sS'form.lr_step_size.data'
p231
F33.0
sS'form.aug_hsv_use.data'
p232
I00
sS'form.lr_inv_power.data'
p233
F0.5
sS'form.aug_whitening.data'
p234
I00
sS'form.aug_hsv_v.data'
p235
F0.06
sS'form.custom_network_snapshot.data'
p236
g179
sS'form.lr_step_gamma.data'
p237
F0.1
sS'form.lr_multistep_gamma.data'
p238
F0.5
sS'form.select_gpu.data'
p239
Vnext
p240
sS'form.lr_exp_gamma.data'
p241
F0.95
sS'form.use_mean.data'
p242
g86
sS'form.aug_contrast.data'
p243
F0.0
sS'form.train_epochs.data'
p244
I100
sS'form.batch_size.data'
p245
(lp246
NasS'form.aug_hsv_h.data'
p247
F0.02
ssg167
F1.0
sS'_id'
p248
S'20180810-204659-701e'
p249
sS'pickver_job_dataset'
p250
I1
sg147
(lp251
((idigits.status
Status
p252
g151
bF1533944819.162124
tp253
a((idigits.status
Status
p254
g157
bF1533944820.327465
tp255
a((idigits.status
Status
p256
g160
bF1533981004.584621
tp257
asS'pickver_job_model_image_classification'
p258
I1
sb.