ccopy_reg
_reconstructor
p0
(cdigits.dataset.images.classification.job
ImageClassificationDatasetJob
p1
c__builtin__
object
p2
Ntp3
Rp4
(dp5
S'username'
p6
Visaac
p7
sS'_notes'
p8
NsS'tasks'
p9
(lp10
g0
(cdigits.dataset.tasks.parse_folder
ParseFolderTask
p11
g2
Ntp12
Rp13
(dp14
S'train_count'
p15
I17956
sS'percent_test'
p16
F0.0
sS'labels_file'
p17
S'labels.txt'
p18
sS'percent_val'
p19
F25.0
sS'val_file'
p20
S'val.txt'
p21
sS'pickver_task_parsefolder'
p22
I1
sS'test_count'
p23
I0
sS'max_per_category'
p24
NsS'pickver_task'
p25
I1
sS'exception'
p26
NsS'current_resources'
p27
NsS'job_id'
p28
S'20180810-200238-65f4'
p29
sS'train_file'
p30
S'train.txt'
p31
sS'traceback'
p32
NsS'label_count'
p33
I7
sS'job_dir'
p34
S'/home/fei/DIGITS/digits/jobs/20180810-200238-65f4'
p35
sS'parents'
p36
NsS'progress'
p37
F1.0
sS'folder'
p38
V/media/fei/fbbf12ec-706d-4bb5-ad96-208bd3d7a88d/home/fei/Documents/isaac/dataset_robot
p39
sS'min_per_category'
p40
I2
sS'val_count'
p41
I5982
sS'status_history'
p42
(lp43
((idigits.status
Status
p44
S'I'
p46
bF1533942158.583127
tp47
a((idigits.status
Status
p48
S'R'
p49
bF1533942159.902947
tp50
a((idigits.status
Status
p51
S'D'
p52
bF1533942161.543503
tp53
asbag0
(cdigits.dataset.tasks.create_db
CreateDbTask
p54
g2
Ntp55
Rp56
(dp57
g17
g18
sg32
NsS'shuffle'
p58
I01
sS'pickver_task_createdb'
p59
I3
sS'encoding'
p60
Vpng
p61
sS'image_dims'
p62
(I256
I256
I3
tp63
sS'resize_mode'
p64
Vsquash
p65
sS'mean_file'
p66
S'mean.binaryproto'
p67
sS'db_name'
p68
S'train_db'
p69
sS'delete_files'
p70
I00
sS'create_db_log_file'
p71
S'create_train_db.log'
p72
sS'entries_count'
p73
I17956
sg25
I1
sS'distribution'
p74
(dp75
V1
p76
(dp77
S'count'
p78
I2414
sS'error_count'
p79
I0
ssV0
p80
(dp81
g78
I2305
sg79
I0
ssV3
p82
(dp83
g78
I2672
sg79
I0
ssV2
p84
(dp85
g78
I1919
sg79
I0
ssV5
p86
(dp87
g78
I2798
sg79
I0
ssV4
p88
(dp89
g78
I3404
sg79
I0
ssV6
p90
(dp91
g78
I2444
sg79
I0
sssS'image_folder'
p92
NsS'backend'
p93
Vlmdb
p94
sS'_labels'
p95
(lp96
S'ballCenter'
p97
aS'ballLeft'
p98
aS'ballRight'
p99
aS'kickLeft'
p100
aS'kickRight'
p101
aS'noBallIn'
p102
aS'noBallOut'
p103
asg26
Nsg27
NsS'compression'
p104
S'none'
p105
sS'input_file'
p106
g31
sg28
S'20180810-200238-65f4'
p107
sg34
g35
sg36
(lp108
g13
asS'image_channel_order'
p109
S'BGR'
p110
sg37
F1.0
sg42
(lp111
((idigits.status
Status
p112
g46
bF1533942158.583179
tp113
a((idigits.status
Status
p114
g49
bF1533942161.928186
tp115
a((idigits.status
Status
p116
g52
bF1533942455.133087
tp117
asS'entries_error'
p118
Nsbag0
(g54
g2
Ntp119
Rp120
(dp121
g17
g18
sg32
Nsg58
I01
sg59
I3
sg60
g61
sg62
g63
sg64
g65
sg66
Nsg68
S'val_db'
p122
sg70
I00
sg71
S'create_val_db.log'
p123
sg73
I5982
sg25
I1
sg74
(dp124
g76
(dp125
g78
I804
sg79
I0
ssg80
(dp126
g78
I768
sg79
I0
ssg82
(dp127
g78
I890
sg79
I0
ssg84
(dp128
g78
I639
sg79
I0
ssg86
(dp129
g78
I932
sg79
I0
ssg88
(dp130
g78
I1135
sg79
I0
ssg90
(dp131
g78
I814
sg79
I0
sssg92
Nsg93
g94
sg95
(lp132
S'ballCenter'
p133
aS'ballLeft'
p134
aS'ballRight'
p135
aS'kickLeft'
p136
aS'kickRight'
p137
aS'noBallIn'
p138
aS'noBallOut'
p139
asg26
Nsg27
Nsg104
g105
sg106
g21
sg28
S'20180810-200238-65f4'
p140
sg34
g35
sg36
(lp141
g13
asg109
g110
sg37
F1.0
sg42
(lp142
((idigits.status
Status
p143
g46
bF1533942158.583203
tp144
a((idigits.status
Status
p145
g49
bF1533942161.936665
tp146
a((idigits.status
Status
p147
g52
bF1533942289.50497
tp148
asg118
Nsbasg17
g18
sg62
g63
sg64
g65
sS'pickver_job'
p149
I2
sS'pickver_job_dataset_image'
p150
I1
sg26
NsS'group'
p151
V
p152
sS'pickver_job_dataset_image_classification'
p153
I2
sS'persistent'
p154
I01
sS'_name'
p155
Vdataset_real_robot_256
p156
sS'form_data'
p157
(dp158
S'form.s3_path.data'
p159
g152
sS'form.textfile_labels_file.data'
p160
g152
sS'form.textfile_local_train_images.data'
p161
g152
sS'form.textfile_use_test.data'
p162
I00
sS'form.resize_height.data'
p163
I256
sS'form.s3_bucket.data'
p164
g152
sS'form.folder_train.data'
p165
g39
sS'form.folder_val_max_per_class.data'
p166
NsS'form.folder_train_min_per_class.data'
p167
I2
sS'form.textfile_val_folder.data'
p168
g152
sS'form.s3_keepcopiesondisk.data'
p169
I00
sS'form.textfile_val_images.data'
p170
g152
sS'form.backend.data'
p171
g94
sS'form.has_test_folder.data'
p172
I00
sS'form.textfile_local_labels_file.data'
p173
g152
sS'form.method.data'
p174
Vfolder
p175
sS'form.encoding.data'
p176
g61
sS'form.folder_test_max_per_class.data'
p177
NsS'form.s3_train_max_per_class.data'
p178
NsS'form.s3_secretkey.data'
p179
g152
sS'form.compression.data'
p180
g105
sS'form.folder_val.data'
p181
g152
sS'form.s3_endpoint_url.data'
p182
g152
sS'form.folder_val_min_per_class.data'
p183
I2
sS'form.has_val_folder.data'
p184
I00
sS'form.s3_pct_test.data'
p185
I0
sS'form.folder_pct_test.data'
p186
I0
sS'form.s3_train_min_per_class.data'
p187
I2
sS'form.textfile_local_val_images.data'
p188
g152
sS'form.textfile_test_images.data'
p189
g152
sS'form.dataset_name.data'
p190
g156
sS'form.textfile_train_images.data'
p191
g152
sS'form.textfile_train_folder.data'
p192
g152
sS'form.group_name.data'
p193
g152
sS'form.folder_train_max_per_class.data'
p194
NsS'form.folder_test.data'
p195
g152
sS'form.folder_test_min_per_class.data'
p196
I2
sS'form.folder_pct_val.data'
p197
I25
sS'form.resize_mode.data'
p198
g65
sS'form.resize_channels.data'
p199
V3
p200
sS'form.s3_accesskey.data'
p201
g152
sS'form.textfile_test_folder.data'
p202
g152
sS'form.textfile_use_local_files.data'
p203
I00
sS'form.resize_width.data'
p204
I256
sS'form.s3_pct_val.data'
p205
I25
sS'form.textfile_use_val.data'
p206
I01
sS'form.textfile_shuffle.data'
p207
I1
sS'form.textfile_local_test_images.data'
p208
g152
ssg37
F1.0
sS'_id'
p209
S'20180810-200238-65f4'
p210
sS'pickver_job_dataset'
p211
I1
sg42
(lp212
((idigits.status
Status
p213
g46
bF1533942158.582967
tp214
a((idigits.status
Status
p215
g49
bF1533942159.654507
tp216
a((idigits.status
Status
p217
g52
bF1533942455.272842
tp218
asb.