ccopy_reg
_reconstructor
p0
(cdigits.model.images.classification.job
ImageClassificationModelJob
p1
c__builtin__
object
p2
Ntp3
Rp4
(dp5
S'username'
p6
Visaac
p7
sS'_notes'
p8
NsS'tasks'
p9
(lp10
g0
(cdigits.model.tasks.caffe_train
CaffeTrainTask
p11
g2
Ntp12
Rp13
(dp14
S'shuffle'
p15
I01
sS'snapshot_interval'
p16
F1.0
sS'caffe_version'
p17
S'1.0.0'
p18
sS'train_outputs'
p19
ccollections
OrderedDict
p20
((lp21
(lp22
S'epoch'
p23
ag0
(cdigits.model.tasks.train
NetworkOutput
p24
c__builtin__
tuple
p25
(S'Epoch'
p26
(lp27
I0
aF0.12056737588652482
aF0.24113475177304963
aF0.3617021276595745
aF0.48226950354609927
aF0.6028368794326241
aF0.723404255319149
aF0.8439716312056738
aF0.9645390070921985
aF1.0851063829787233
aF1.2056737588652482
aF1.326241134751773
aF1.446808510638298
aF1.5673758865248226
aF1.6879432624113475
aF1.8085106382978724
aF1.929078014184397
aF2.049645390070922
aF2.1702127659574466
aF2.2907801418439715
aF2.4113475177304964
aF2.5319148936170213
aF2.652482269503546
aF2.773049645390071
aF2.893617021276596
aF3.0141843971631204
aF3.1347517730496453
aF3.25531914893617
aF3.375886524822695
aF3.49645390070922
aF3.617021276595745
aF3.7375886524822697
aF3.858156028368794
aF3.978723404255319
aF4.099290780141844
aF4.219858156028369
aF4.340425531914893
aF4.460992907801418
aF4.581560283687943
aF4.702127659574468
aF4.822695035460993
aF4.943262411347518
aF5.0638297872340425
aF5.184397163120567
aF5.304964539007092
aF5.425531914893617
aF5.546099290780142
aF5.666666666666667
aF5.787234042553192
aF5.907801418439717
aF6.028368794326241
aF6.148936170212766
aF6.2695035460992905
aF6.390070921985815
aF6.51063829787234
aF6.631205673758865
aF6.75177304964539
aF6.872340425531915
aF6.99290780141844
aF7.113475177304965
aF7.23404255319149
aF7.3546099290780145
aF7.475177304964539
aF7.595744680851064
aF7.716312056737588
aF7.836879432624113
aF7.957446808510638
aF8.078014184397164
aF8.198581560283689
aF8.319148936170214
aF8.439716312056738
aF8.560283687943262
aF8.680851063829786
aF8.801418439716311
aF8.921985815602836
aF9.042553191489361
aF9.163120567375886
aF9.28368794326241
aF9.404255319148936
aF9.52482269503546
aF9.645390070921986
aF9.76595744680851
aF9.886524822695035
aF10.00709219858156
aF10.127659574468085
aF10.24822695035461
aF10.368794326241135
aF10.48936170212766
aF10.609929078014185
aF10.73049645390071
aF10.851063829787234
aF10.97163120567376
aF11.092198581560284
aF11.212765957446809
aF11.333333333333334
aF11.453900709219859
aF11.574468085106384
aF11.695035460992909
aF11.815602836879433
aF11.936170212765957
aF12.056737588652481
aF12.177304964539006
aF12.297872340425531
aF12.418439716312056
aF12.539007092198581
aF12.659574468085106
aF12.78014184397163
aF12.900709219858156
aF13.02127659574468
aF13.141843971631205
aF13.26241134751773
aF13.382978723404255
aF13.50354609929078
aF13.624113475177305
aF13.74468085106383
aF13.865248226950355
aF13.98581560283688
aF14.106382978723405
aF14.22695035460993
aF14.347517730496454
aF14.46808510638298
aF14.588652482269504
aF14.709219858156029
aF14.829787234042554
aF14.950354609929079
aF15.070921985815604
aF15.191489361702128
aF15.312056737588652
aF15.432624113475176
aF15.553191489361701
aF15.673758865248226
aF15.794326241134751
aF15.914893617021276
aF16.0354609929078
aF16.156028368794328
aF16.27659574468085
aF16.397163120567377
aF16.5177304964539
aF16.638297872340427
aF16.75886524822695
aF16.879432624113477
aF17.0
aF17.120567375886523
aF17.24113475177305
aF17.361702127659573
aF17.4822695035461
aF17.602836879432623
aF17.72340425531915
aF17.843971631205672
aF17.9645390070922
aF18.085106382978722
aF18.20567375886525
aF18.326241134751772
aF18.4468085106383
aF18.56737588652482
aF18.68794326241135
aF18.80851063829787
aF18.929078014184398
aF19.04964539007092
aF19.170212765957448
aF19.29078014184397
aF19.411347517730498
aF19.53191489361702
aF19.652482269503547
aF19.77304964539007
aF19.893617021276597
aF20.01418439716312
aF20.134751773049647
aF20.25531914893617
aF20.375886524822697
aF20.49645390070922
aF20.617021276595743
aF20.73758865248227
aF20.858156028368793
aF20.97872340425532
aF21.099290780141843
aF21.21985815602837
aF21.340425531914892
aF21.46099290780142
aF21.581560283687942
aF21.70212765957447
aF21.822695035460992
aF21.94326241134752
aF22.06382978723404
aF22.18439716312057
aF22.30496453900709
aF22.425531914893618
aF22.54609929078014
aF22.666666666666668
aF22.78723404255319
aF22.907801418439718
aF23.02836879432624
aF23.148936170212767
aF23.26950354609929
aF23.390070921985817
aF23.51063829787234
aF23.631205673758867
aF23.75177304964539
aF23.872340425531913
aF23.99290780141844
aF24.113475177304963
aF24.23404255319149
aF24.354609929078013
aF24.47517730496454
aF24.595744680851062
aF24.71631205673759
aF24.836879432624112
aF24.95744680851064
aF25.078014184397162
aF25.19858156028369
aF25.319148936170212
aF25.43971631205674
aF25.56028368794326
aF25.680851063829788
aF25.80141843971631
aF25.921985815602838
aF26.04255319148936
aF26.163120567375888
aF26.28368794326241
aF26.404255319148938
aF26.52482269503546
aF26.645390070921987
aF26.76595744680851
aF26.886524822695037
aF27.00709219858156
aF27.127659574468087
aF27.24822695035461
aF27.368794326241133
aF27.48936170212766
aF27.609929078014183
aF27.73049645390071
aF27.851063829787233
aF27.97163120567376
aF28.092198581560282
aF28.21276595744681
aF28.333333333333332
aF28.45390070921986
aF28.574468085106382
aF28.69503546099291
aF28.81560283687943
aF28.93617021276596
aF29.05673758865248
aF29.177304964539008
aF29.29787234042553
aF29.418439716312058
aF29.53900709219858
aF29.659574468085108
aF29.78014184397163
aF29.900709219858157
aF30.02127659574468
aF30.141843971631207
aF30.26241134751773
aF30.382978723404257
aF30.50354609929078
aF30.624113475177303
aF30.74468085106383
aF30.865248226950353
aF30.98581560283688
aF31.106382978723403
aF31.22695035460993
aF31.347517730496453
aF31.46808510638298
aF31.588652482269502
aF31.70921985815603
aF31.829787234042552
aF31.95035460992908
aF32.0709219858156
aF32.191489361702125
aF32.312056737588655
aF32.43262411347518
aF32.5531914893617
aF32.673758865248224
aF32.794326241134755
aF32.91489361702128
aF33.0354609929078
aF33.156028368794324
aF33.276595744680854
aF33.39716312056738
aF33.5177304964539
aF33.638297872340424
aF33.758865248226954
aF33.87943262411348
aF34.0
aF34.12056737588652
aF34.241134751773046
aF34.361702127659576
aF34.4822695035461
aF34.60283687943262
aF34.723404255319146
aF34.843971631205676
aF34.9645390070922
aF35.08510638297872
aF35.205673758865245
aF35.326241134751776
aF35.4468085106383
aF35.56737588652482
aF35.687943262411345
aF35.808510638297875
aF35.9290780141844
aF36.04964539007092
aF36.170212765957444
aF36.290780141843975
aF36.4113475177305
aF36.53191489361702
aF36.652482269503544
aF36.773049645390074
aF36.8936170212766
aF37.01418439716312
aF37.13475177304964
aF37.255319148936174
aF37.3758865248227
aF37.49645390070922
aF37.61702127659574
aF37.737588652482266
aF37.858156028368796
aF37.97872340425532
aF38.09929078014184
aF38.219858156028366
aF38.340425531914896
aF38.46099290780142
aF38.58156028368794
aF38.702127659574465
aF38.822695035460995
aF38.94326241134752
aF39.06382978723404
aF39.184397163120565
aF39.304964539007095
aF39.42553191489362
aF39.54609929078014
aF39.666666666666664
aF39.787234042553195
aF39.90780141843972
aF40.02836879432624
aF40.148936170212764
aF40.269503546099294
aF40.39007092198582
aF40.51063829787234
aF40.63120567375886
aF40.751773049645394
aF40.87234042553192
aF40.99290780141844
aF41.11347517730496
aF41.234042553191486
aF41.354609929078016
aF41.47517730496454
aF41.59574468085106
aF41.716312056737586
aF41.836879432624116
aF41.95744680851064
aF42.07801418439716
aF42.198581560283685
aF42.319148936170215
aF42.43971631205674
aF42.56028368794326
aF42.680851063829785
aF42.801418439716315
aF42.92198581560284
aF43.04255319148936
aF43.163120567375884
aF43.283687943262414
aF43.40425531914894
aF43.52482269503546
aF43.645390070921984
aF43.765957446808514
aF43.88652482269504
aF44.00709219858156
aF44.12765957446808
aF44.248226950354606
aF44.36879432624114
aF44.48936170212766
aF44.60992907801418
aF44.730496453900706
aF44.851063829787236
aF44.97163120567376
aF45.09219858156028
aF45.212765957446805
aF45.333333333333336
aF45.45390070921986
aF45.57446808510638
aF45.695035460992905
aF45.815602836879435
aF45.93617021276596
aF46.05673758865248
aF46.177304964539005
aF46.297872340425535
aF46.41843971631206
aF46.53900709219858
aF46.659574468085104
aF46.780141843971634
aF46.90070921985816
aF47.02127659574468
aF47.141843971631204
aF47.262411347517734
aF47.38297872340426
aF47.50354609929078
aF47.6241134751773
aF47.744680851063826
aF47.86524822695036
aF47.98581560283688
aF48.1063829787234
aF48.226950354609926
aF48.347517730496456
aF48.46808510638298
aF48.5886524822695
aF48.709219858156025
aF48.829787234042556
aF48.95035460992908
aF49.0709219858156
aF49.191489361702125
aF49.312056737588655
aF49.43262411347518
aF49.5531914893617
aF49.673758865248224
aF49.794326241134755
aF49.91489361702128
aF50.0354609929078
aF50.156028368794324
aF50.276595744680854
aF50.39716312056738
aF50.5177304964539
aF50.638297872340424
aF50.758865248226954
aF50.87943262411348
aF51.0
aF51.12056737588652
aF51.241134751773046
aF51.361702127659576
aF51.4822695035461
aF51.60283687943262
aF51.723404255319146
aF51.843971631205676
aF51.9645390070922
aF52.08510638297872
aF52.205673758865245
aF52.326241134751776
aF52.4468085106383
aF52.56737588652482
aF52.687943262411345
aF52.808510638297875
aF52.9290780141844
aF53.04964539007092
aF53.170212765957444
aF53.290780141843975
aF53.4113475177305
aF53.53191489361702
aF53.652482269503544
aF53.773049645390074
aF53.8936170212766
aF54.01418439716312
aF54.13475177304964
aF54.255319148936174
aF54.3758865248227
aF54.49645390070922
aF54.61702127659574
aF54.737588652482266
aF54.858156028368796
aF54.97872340425532
aF55.09929078014184
aF55.219858156028366
aF55.340425531914896
aF55.46099290780142
aF55.58156028368794
aF55.702127659574465
aF55.822695035460995
aF55.94326241134752
aF56.06382978723404
aF56.184397163120565
aF56.304964539007095
aF56.42553191489362
aF56.54609929078014
aF56.666666666666664
aF56.787234042553195
aF56.90780141843972
aF57.02836879432624
aF57.148936170212764
aF57.269503546099294
aF57.39007092198582
aF57.51063829787234
aF57.63120567375886
aF57.751773049645394
aF57.87234042553192
aF57.99290780141844
aF58.11347517730496
aF58.234042553191486
aF58.354609929078016
aF58.47517730496454
aF58.59574468085106
aF58.716312056737586
aF58.836879432624116
aF58.95744680851064
aF59.07801418439716
aF59.198581560283685
aF59.319148936170215
aF59.43971631205674
aF59.56028368794326
aF59.680851063829785
aF59.801418439716315
aF59.92198581560284
aF60.04255319148936
aF60.163120567375884
aF60.283687943262414
aF60.40425531914894
aF60.52482269503546
aF60.645390070921984
aF60.765957446808514
aF60.88652482269504
aF61.00709219858156
aF61.12765957446808
aF61.248226950354606
aF61.36879432624114
aF61.48936170212766
aF61.60992907801418
aF61.730496453900706
aF61.851063829787236
aF61.97163120567376
aF62.09219858156028
aF62.212765957446805
aF62.333333333333336
aF62.45390070921986
aF62.57446808510638
aF62.695035460992905
aF62.815602836879435
aF62.93617021276596
aF63.05673758865248
aF63.177304964539005
aF63.297872340425535
aF63.41843971631206
aF63.53900709219858
aF63.659574468085104
aF63.780141843971634
aF63.90070921985816
aF64.02127659574468
aF64.1418439716312
aF64.26241134751773
aF64.38297872340425
aF64.50354609929079
aF64.62411347517731
aF64.74468085106383
aF64.86524822695036
aF64.98581560283688
aF65.1063829787234
aF65.22695035460993
aF65.34751773049645
aF65.46808510638297
aF65.58865248226951
aF65.70921985815603
aF65.82978723404256
aF65.95035460992908
aF66.0709219858156
aF66.19148936170212
aF66.31205673758865
aF66.43262411347517
aF66.55319148936171
aF66.67375886524823
aF66.79432624113475
aF66.91489361702128
aF67.0354609929078
aF67.15602836879432
aF67.27659574468085
aF67.39716312056737
aF67.51773049645391
aF67.63829787234043
aF67.75886524822695
aF67.87943262411348
aF68.0
aF68.12056737588652
aF68.24113475177305
aF68.36170212765957
aF68.48226950354609
aF68.60283687943263
aF68.72340425531915
aF68.84397163120568
aF68.9645390070922
aF69.08510638297872
aF69.20567375886525
aF69.32624113475177
aF69.44680851063829
aF69.56737588652483
aF69.68794326241135
aF69.80851063829788
aF69.9290780141844
aF70.04964539007092
aF70.17021276595744
aF70.29078014184397
aF70.41134751773049
aF70.53191489361703
aF70.65248226950355
aF70.77304964539007
aF70.8936170212766
aF71.01418439716312
aF71.13475177304964
aF71.25531914893617
aF71.37588652482269
aF71.49645390070921
aF71.61702127659575
aF71.73758865248227
aF71.8581560283688
aF71.97872340425532
aF72.09929078014184
aF72.21985815602837
aF72.34042553191489
aF72.46099290780141
aF72.58156028368795
aF72.70212765957447
aF72.822695035461
aF72.94326241134752
aF73.06382978723404
aF73.18439716312056
aF73.30496453900709
aF73.42553191489361
aF73.54609929078015
aF73.66666666666667
aF73.7872340425532
aF73.90780141843972
aF74.02836879432624
aF74.14893617021276
aF74.26950354609929
aF74.39007092198581
aF74.51063829787235
aF74.63120567375887
aF74.7517730496454
aF74.87234042553192
aF74.99290780141844
aF75.11347517730496
aF75.23404255319149
aF75.35460992907801
aF75.47517730496453
aF75.59574468085107
aF75.71631205673759
aF75.83687943262412
aF75.95744680851064
aF76.07801418439716
aF76.19858156028369
aF76.31914893617021
aF76.43971631205673
aF76.56028368794327
aF76.68085106382979
aF76.80141843971631
aF76.92198581560284
aF77.04255319148936
aF77.16312056737588
aF77.28368794326241
aF77.40425531914893
aF77.52482269503547
aF77.64539007092199
aF77.76595744680851
aF77.88652482269504
aF78.00709219858156
aF78.12765957446808
aF78.2482269503546
aF78.36879432624113
aF78.48936170212765
aF78.60992907801419
aF78.73049645390071
aF78.85106382978724
aF78.97163120567376
aF79.09219858156028
aF79.2127659574468
aF79.33333333333333
aF79.45390070921985
aF79.57446808510639
aF79.69503546099291
aF79.81560283687944
aF79.93617021276596
aF80.05673758865248
aF80.177304964539
aF80.29787234042553
aF80.41843971631205
aF80.53900709219859
aF80.65957446808511
aF80.78014184397163
aF80.90070921985816
aF81.02127659574468
aF81.1418439716312
aF81.26241134751773
aF81.38297872340425
aF81.50354609929079
aF81.62411347517731
aF81.74468085106383
aF81.86524822695036
aF81.98581560283688
aF82.1063829787234
aF82.22695035460993
aF82.34751773049645
aF82.46808510638297
aF82.58865248226951
aF82.70921985815603
aF82.82978723404256
aF82.95035460992908
aF83.0709219858156
aF83.19148936170212
aF83.31205673758865
aF83.43262411347517
aF83.55319148936171
aF83.67375886524823
aF83.79432624113475
aF83.91489361702128
aF84.0354609929078
aF84.15602836879432
aF84.27659574468085
aF84.39716312056737
aF84.51773049645391
aF84.63829787234043
aF84.75886524822695
aF84.87943262411348
aF85.0
aF85.12056737588652
aF85.24113475177305
aF85.36170212765957
aF85.48226950354609
aF85.60283687943263
aF85.72340425531915
aF85.84397163120568
aF85.9645390070922
aF86.08510638297872
aF86.20567375886525
aF86.32624113475177
aF86.44680851063829
aF86.56737588652483
aF86.68794326241135
aF86.80851063829788
aF86.9290780141844
aF87.04964539007092
aF87.17021276595744
aF87.29078014184397
aF87.41134751773049
aF87.53191489361703
aF87.65248226950355
aF87.77304964539007
aF87.8936170212766
aF88.01418439716312
aF88.13475177304964
aF88.25531914893617
aF88.37588652482269
aF88.49645390070921
aF88.61702127659575
aF88.73758865248227
aF88.8581560283688
aF88.97872340425532
aF89.09929078014184
aF89.21985815602837
aF89.34042553191489
aF89.46099290780141
aF89.58156028368795
aF89.70212765957447
aF89.822695035461
aF89.94326241134752
aF90.06382978723404
aF90.18439716312056
aF90.30496453900709
aF90.42553191489361
aF90.54609929078015
aF90.66666666666667
aF90.7872340425532
aF90.90780141843972
aF91.02836879432624
aF91.14893617021276
aF91.26950354609929
aF91.39007092198581
aF91.51063829787235
aF91.63120567375887
aF91.7517730496454
aF91.87234042553192
aF91.99290780141844
aF92.11347517730496
aF92.23404255319149
aF92.35460992907801
aF92.47517730496453
aF92.59574468085107
aF92.71631205673759
aF92.83687943262412
aF92.95744680851064
aF93.07801418439716
aF93.19858156028369
aF93.31914893617021
aF93.43971631205673
aF93.56028368794327
aF93.68085106382979
aF93.80141843971631
aF93.92198581560284
aF94.04255319148936
aF94.16312056737588
aF94.28368794326241
aF94.40425531914893
aF94.52482269503547
aF94.64539007092199
aF94.76595744680851
aF94.88652482269504
aF95.00709219858156
aF95.12765957446808
aF95.2482269503546
aF95.36879432624113
aF95.48936170212765
aF95.60992907801419
aF95.73049645390071
aF95.85106382978724
aF95.97163120567376
aF96.09219858156028
aF96.2127659574468
aF96.33333333333333
aF96.45390070921985
aF96.57446808510639
aF96.69503546099291
aF96.81560283687944
aF96.93617021276596
aF97.05673758865248
aF97.177304964539
aF97.29787234042553
aF97.41843971631205
aF97.53900709219859
aF97.65957446808511
aF97.78014184397163
aF97.90070921985816
aF98.02127659574468
aF98.1418439716312
aF98.26241134751773
aF98.38297872340425
aF98.50354609929079
aF98.62411347517731
aF98.74468085106383
aF98.86524822695036
aF98.98581560283688
aF99.1063829787234
aF99.22695035460993
aF99.34751773049645
aF99.46808510638297
aF99.58865248226951
aF99.70921985815603
aF99.82978723404256
aF99.95035460992908
atp28
tp29
Rp30
aa(lp31
S'loss'
p32
ag0
(g24
g25
(S'SoftmaxWithLoss'
p33
(lp34
F0.706755
aF0.519443
aF0.429484
aF0.351448
aF0.227612
aF0.185845
aF0.158146
aF0.0777238
aF0.0790551
aF0.106437
aF0.0234809
aF0.0470656
aF0.032846
aF0.0294457
aF0.0299165
aF0.0406871
aF0.00919714
aF0.0230027
aF0.0141005
aF0.0175507
aF0.00796931
aF0.0057968
aF0.0100714
aF0.0199263
aF0.00103054
aF0.00759232
aF0.0209738
aF0.00741993
aF0.00430992
aF0.0123788
aF0.0322913
aF0.00238974
aF0.00355181
aF0.00119775
aF0.0040978
aF0.0155607
aF0.00704698
aF0.0271769
aF0.00804983
aF0.0111744
aF0.0117689
aF0.00213366
aF0.0331668
aF0.018715
aF0.0169942
aF0.000653298
aF0.0102625
aF0.0057749
aF0.00713446
aF0.00581498
aF0.0175373
aF0.00109448
aF0.000680473
aF0.00163606
aF0.00070083
aF0.0060479
aF0.0135027
aF0.000127776
aF0.00636961
aF0.00136937
aF0.00266301
aF0.0092253
aF0.000677162
aF0.000787685
aF0.000802552
aF0.00181801
aF2.58124e-05
aF1.99316e-05
aF0.000284273
aF0.000502235
aF0.00168435
aF0.00128207
aF0.0186657
aF0.00124942
aF0.00277358
aF0.0432612
aF0.002546
aF0.000218175
aF0.000198442
aF0.00021172
aF0.00083646
aF0.000238649
aF0.0147798
aF0.00141652
aF0.000676625
aF0.000109214
aF0.00976883
aF1.88544e-05
aF0.000510223
aF0.000431442
aF2.80741e-05
aF0.00110701
aF0.00109425
aF0.00129113
aF0.00440915
aF8.85194e-05
aF0.0016116
aF0.000873396
aF1.68372e-05
aF3.27525e-06
aF0.00402799
aF3.71408e-05
aF1.46567e-05
aF0.00922081
aF0.00159115
aF3.80918e-05
aF0.00175731
aF9.23503e-05
aF2.17914e-05
aF0.000180242
aF3.1685e-05
aF0.00443144
aF0.0104162
aF8.66123e-05
aF0.0206722
aF8.80649e-05
aF0.0206116
aF0.000515057
aF0.0521746
aF0.000560307
aF0.00012307
aF0.00302317
aF0.00182185
aF2.0067e-05
aF0.000176735
aF0.00213247
aF0.00512114
aF0.00123108
aF3.64174e-05
aF0.0159947
aF0.000177751
aF1.41756e-05
aF0.00935701
aF0.000380189
aF1.40471e-05
aF0.000122458
aF0.0280877
aF0.00294512
aF0.000495721
aF0.00176527
aF0.000208673
aF0.00116439
aF0.000307004
aF3.56847e-05
aF1.90214e-05
aF0.000877465
aF0.000162125
aF0.000474243
aF0.000111089
aF0.00861039
aF0.00106293
aF5.65986e-05
aF5.7049e-05
aF6.47589e-06
aF2.48475e-05
aF2.43141e-06
aF0.000584733
aF0.00714453
aF0.00235209
aF0.00728139
aF0.000119168
aF2.43546e-05
aF0.00293265
aF0.0108847
aF6.86375e-05
aF2.61741e-05
aF1.86608e-05
aF1.29874e-05
aF2.52702e-05
aF0.000618321
aF0.000567424
aF2.67177e-06
aF0.00359898
aF9.8341e-06
aF0.0144142
aF3.93941e-05
aF2.29302e-06
aF6.60586e-06
aF0.000127514
aF7.80206e-05
aF0.00388694
aF0.00144051
aF9.00188e-05
aF0.000551426
aF6.93095e-05
aF0.000348868
aF1.52157e-05
aF4.34828e-05
aF7.63324e-05
aF4.63807e-07
aF2.29428e-05
aF4.46346e-05
aF0.000246002
aF0.000108249
aF7.10692e-06
aF4.30567e-05
aF9.42438e-05
aF0.000936427
aF4.10071e-06
aF1.20141e-07
aF1.88098e-06
aF1.14553e-07
aF9.98462e-05
aF0.000120593
aF1.16698e-06
aF8.00898e-05
aF5.86643e-06
aF0.000630434
aF1.81523e-06
aF2.14217e-05
aF0.000158759
aF0.000197638
aF0.000877622
aF2.04891e-05
aF5.63427e-05
aF0.000109685
aF5.01039e-05
aF6.147e-05
aF1.25769e-05
aF5.86326e-06
aF0.00414774
aF5.143e-06
aF1.41562e-07
aF6.00253e-05
aF0.00165996
aF3.86596e-05
aF0.00016501
aF5.54637e-06
aF3.47387e-07
aF0.00037116
aF1.86932e-05
aF0.00114649
aF0.000746124
aF0.0153687
aF8.50139e-06
aF0.000169733
aF0.00396738
aF2.48422e-06
aF5.99338e-05
aF0.000203914
aF0.000141094
aF2.84258e-05
aF2.19676e-05
aF5.19558e-06
aF1.14857e-05
aF0.000150522
aF3.70669e-07
aF2.82105e-05
aF6.05398e-06
aF4.55263e-05
aF2.47362e-05
aF0.000364109
aF5.25731e-05
aF0.00376378
aF3.67875e-07
aF1.16978e-06
aF0.000721142
aF0.00111946
aF0.0149553
aF0.00179089
aF7.54642e-05
aF0.00991957
aF0.000220136
aF9.42135e-05
aF7.69919e-05
aF1.98354e-05
aF0.000245541
aF2.97173e-06
aF0.000233994
aF0.000255106
aF8.72672e-07
aF1.25899e-05
aF5.91058e-06
aF6.31246e-05
aF5.09607e-06
aF0.000109286
aF7.70053e-05
aF3.14023e-06
aF1.07783e-05
aF1.98663e-06
aF3.10984e-06
aF1.22098e-06
aF1.99304e-07
aF1.60103e-05
aF7.74871e-07
aF4.07736e-05
aF0.00104103
aF1.6774e-06
aF3.71601e-07
aF7.84574e-06
aF6.18835e-06
aF1.05335e-06
aF7.05857e-06
aF2.50726e-06
aF3.23174e-07
aF1.40914e-06
aF4.1942e-06
aF3.5484e-07
aF2.83124e-07
aF1.84971e-06
aF2.77196e-05
aF0.000231978
aF2.1473e-05
aF1.86551e-06
aF0.000157522
aF3.76098e-05
aF0.000123495
aF8.49074e-06
aF5.43852e-05
aF3.69341e-05
aF9.35154e-06
aF3.19684e-06
aF6.33618e-06
aF3.29197e-06
aF2.36737e-05
aF7.76178e-06
aF0.000131784
aF1.71373e-06
aF1.65693e-06
aF4.51771e-05
aF1.20597e-05
aF7.71031e-06
aF1.82201e-05
aF5.79911e-05
aF0.000350975
aF3.76188e-05
aF5.20277e-06
aF1.13505e-05
aF2.24611e-06
aF4.25081e-05
aF1.83471e-07
aF1.17347e-07
aF5.19654e-05
aF2.73812e-07
aF4.50865e-05
aF0.000258721
aF2.90576e-07
aF5.21983e-05
aF4.21558e-05
aF1.06444e-05
aF3.17511e-06
aF0.000553051
aF2.0881e-06
aF1.25199e-05
aF6.10764e-05
aF2.80556e-06
aF5.69188e-05
aF2.74528e-06
aF2.94592e-06
aF4.37229e-05
aF8.81047e-07
aF2.87049e-05
aF2.55759e-06
aF1.12615e-05
aF4.02337e-07
aF4.75911e-07
aF4.82736e-05
aF1.5526e-06
aF1.97129e-06
aF1.84996e-05
aF9.69555e-07
aF1.08948e-05
aF9.81568e-06
aF2.61703e-07
aF2.94301e-07
aF8.54985e-07
aF5.12233e-07
aF0.000142397
aF2.20538e-05
aF0.000104547
aF0.000451852
aF2.0254e-05
aF1.40429e-05
aF1.83065e-06
aF4.81287e-05
aF1.01891e-06
aF1.77459e-05
aF3.25033e-07
aF2.98167e-06
aF8.42294e-06
aF1.81392e-06
aF2.43364e-06
aF0.000170503
aF2.34196e-06
aF0.000268038
aF3.53334e-06
aF1.39843e-05
aF2.04961e-06
aF5.54925e-05
aF1.50135e-05
aF2.57828e-06
aF1.72116e-06
aF8.98906e-06
aF3.35983e-05
aF2.07303e-05
aF4.46436e-06
aF2.61705e-07
aF2.79397e-08
aF9.08069e-07
aF1.02358e-06
aF1.42954e-05
aF6.78017e-07
aF1.99993e-05
aF1.33308e-05
aF1.5907e-05
aF7.89308e-05
aF4.35109e-05
aF2.96832e-05
aF6.48402e-06
aF5.51306e-06
aF1.47528e-06
aF4.23727e-06
aF4.60527e-06
aF2.07696e-06
aF3.86207e-06
aF2.7276e-05
aF7.13415e-07
aF4.52278e-05
aF1.12752e-05
aF0.000182489
aF2.77047e-06
aF1.33652e-06
aF1.49094e-05
aF1.77481e-06
aF7.46006e-07
aF2.85514e-06
aF2.4156e-05
aF1.61297e-05
aF4.34002e-07
aF3.25963e-08
aF1.95578e-08
aF6.51927e-08
aF2.00235e-07
aF0.000103926
aF1.95578e-07
aF2.28929e-05
aF5.14013e-06
aF3.83194e-06
aF3.68606e-05
aF1.56287e-06
aF2.58972e-05
aF1.90467e-06
aF3.08073e-06
aF5.40168e-08
aF6.94792e-07
aF2.82663e-05
aF1.37472e-06
aF3.58561e-07
aF1.24874e-05
aF1.93351e-06
aF3.08524e-06
aF7.97221e-07
aF1.8999e-07
aF1.11774e-05
aF1.90239e-06
aF5.2821e-06
aF5.40579e-05
aF4.15511e-06
aF2.0186e-05
aF7.75888e-05
aF8.28001e-06
aF3.43209e-06
aF9.87204e-08
aF2.86613e-06
aF2.29107e-07
aF5.68107e-08
aF3.79919e-05
aF6.14688e-07
aF2.3739e-05
aF2.27817e-05
aF4.57491e-06
aF2.05458e-06
aF2.07393e-05
aF2.53947e-05
aF7.78602e-07
aF2.86697e-05
aF8.10253e-08
aF2.24527e-06
aF8.67806e-06
aF5.26668e-06
aF5.0489e-06
aF2.79461e-05
aF5.05706e-06
aF2.3053e-05
aF6.59939e-06
aF2.96201e-06
aF7.13301e-06
aF2.19957e-06
aF1.76799e-05
aF1.67699e-06
aF2.6805e-05
aF2.27683e-05
aF6.57701e-05
aF6.06307e-07
aF1.18005e-06
aF7.45079e-07
aF2.2445e-07
aF2.42591e-06
aF1.84403e-07
aF2.65958e-06
aF2.63978e-06
aF4.69639e-05
aF3.41212e-05
aF2.06736e-05
aF5.49298e-06
aF5.47626e-07
aF6.17442e-05
aF1.38408e-05
aF2.43523e-06
aF3.49359e-06
aF4.65662e-08
aF5.4422e-05
aF1.16415e-07
aF1.92065e-05
aF0.000178462
aF3.57871e-06
aF1.55841e-05
aF1.95436e-05
aF1.6615e-05
aF1.91394e-06
aF1.78814e-07
aF7.13101e-06
aF1.33093e-06
aF5.49485e-07
aF6.27399e-05
aF1.0308e-05
aF7.19335e-06
aF2.92439e-07
aF3.52054e-06
aF2.84757e-06
aF2.93445e-06
aF6.42636e-07
aF2.82193e-07
aF3.99498e-05
aF1.31959e-05
aF4.42004e-06
aF4.75515e-05
aF9.2777e-06
aF7.01102e-06
aF5.11125e-06
aF7.35766e-07
aF2.08903e-06
aF1.33576e-05
aF6.42613e-08
aF2.06822e-06
aF3.80131e-06
aF9.09927e-07
aF1.15954e-06
aF8.52702e-06
aF7.02749e-05
aF1.29657e-05
aF2.24248e-05
aF1.44466e-05
aF8.54062e-07
aF9.92518e-06
aF3.52042e-07
aF4.11109e-06
aF1.85529e-06
aF4.3374e-06
aF1.33283e-06
aF6.51011e-07
aF9.97125e-06
aF5.58807e-07
aF0.00028108
aF4.12582e-07
aF2.0076e-06
aF2.80674e-06
aF0.000109783
aF7.85271e-06
aF1.23778e-06
aF2.97811e-06
aF7.41003e-06
aF1.66302e-05
aF2.72305e-06
aF3.28337e-06
aF4.70321e-07
aF8.75445e-08
aF2.76211e-06
aF7.50657e-07
aF5.38315e-07
aF3.75634e-05
aF7.58165e-06
aF7.52523e-07
aF4.07592e-06
aF8.37617e-06
aF2.61672e-06
aF6.88261e-07
aF3.62452e-05
aF1.44355e-07
aF3.09755e-05
aF4.30276e-07
aF1.45846e-05
aF1.21072e-07
aF6.24931e-07
aF0.000139351
aF1.81576e-06
aF5.22479e-07
aF2.30038e-07
aF2.51246e-06
aF1.06359e-06
aF7.23046e-05
aF1.42034e-05
aF1.65892e-05
aF4.03318e-06
aF1.14188e-06
aF3.4834e-06
aF1.63913e-07
aF1.58429e-06
aF1.42032e-06
aF1.74158e-07
aF1.08164e-05
aF0.000111125
aF2.65898e-05
aF5.92044e-06
aF3.67877e-07
aF1.68391e-06
aF1.71364e-07
aF5.52285e-07
aF2.88712e-07
aF7.26374e-06
aF9.90025e-07
aF2.06755e-07
aF6.6544e-06
aF2.32194e-06
aF1.93657e-05
aF1.22566e-06
aF9.87206e-08
aF2.79094e-06
aF1.75336e-06
aF1.01333e-06
aF1.49012e-08
aF2.8083e-06
aF2.76521e-06
aF2.28976e-05
aF2.25381e-07
aF1.87604e-05
aF2.05439e-05
aF1.24803e-06
aF7.69676e-06
aF2.30971e-07
aF0.000121423
aF4.45175e-07
aF1.83611e-05
aF6.02584e-07
aF3.80768e-06
aF1.32255e-06
aF5.486e-06
aF3.7223e-06
aF8.70815e-07
aF1.10261e-05
aF3.21153e-06
aF1.98193e-06
aF1.76021e-07
aF7.2086e-07
aF3.46458e-07
aF3.15272e-06
aF1.73007e-06
aF4.06995e-07
aF1.53669e-07
aF6.08479e-06
aF5.63462e-07
aF1.23778e-06
aF1.16021e-05
aF2.99888e-07
aF5.86747e-07
aF6.4169e-07
aF9.87692e-06
aF1.36542e-06
aF2.77673e-05
aF2.33764e-07
aF5.61076e-06
aF8.77229e-05
aF1.94647e-07
aF6.14674e-08
aF1.9651e-07
aF3.72532e-07
aF7.4414e-07
aF2.32057e-06
aF5.36449e-07
aF1.02564e-05
aF1.79757e-06
aF6.53107e-06
aF1.08081e-05
aF6.15612e-07
aF3.61812e-05
aF1.74159e-07
aF2.22472e-05
aF2.79397e-08
aF1.1e-05
aF1.71932e-06
aF7.45059e-08
aF8.38191e-09
aF7.41362e-07
aF5.58617e-06
aF2.05611e-06
aF2.88939e-06
aF1.07102e-07
aF1.5084e-06
aF4.05492e-06
aF5.10754e-06
aF3.40041e-06
aF3.45991e-05
aF7.4506e-08
aF8.52202e-07
aF2.13167e-05
aF3.12416e-06
aF6.61226e-06
aF6.95715e-07
aF8.74553e-07
aF3.4832e-07
aF7.7208e-07
aF2.56743e-06
aF1.47702e-05
aF5.43262e-05
aF1.51255e-06
aF1.15455e-05
aF3.87437e-07
aF9.16736e-06
aF5.42973e-07
aF4.77015e-05
aF1.56463e-07
aF1.0049e-05
aF4.54906e-05
aF5.26873e-06
aF2.98023e-08
aF4.92681e-07
aF9.09019e-07
aF4.78517e-06
aF1.5438e-06
aF1.91084e-06
aF4.07547e-06
aF3.62148e-06
aF4.46942e-05
aF1.24666e-05
aF9.63559e-06
aF4.58223e-07
aF5.14942e-06
aF0.000313738
aF5.4806e-06
aF5.37382e-07
aF3.24102e-07
aF4.84289e-08
aF4.71354e-05
aF4.98265e-07
aF1.39057e-06
aF5.50535e-05
aF5.36448e-07
aF4.20738e-05
aF2.00159e-05
aF2.56806e-05
aF5.75017e-06
aF2.20724e-07
aF6.08164e-07
aF7.16195e-07
aF4.2352e-06
aF1.39053e-06
aF8.57861e-06
aF1.76952e-07
aF8.98765e-07
aF1.49943e-07
aF8.13059e-07
aF1.2853e-06
aF4.17634e-06
aF4.61941e-07
aF2.4616e-06
aF5.23957e-05
aF1.18279e-07
aF1.11469e-05
aF5.4297e-07
aF3.07315e-06
aF3.21907e-05
aF8.40998e-07
aF1.89678e-06
aF3.79504e-06
aF1.03379e-06
aF2.487e-05
aF3.04996e-06
aF9.05268e-07
aF3.24637e-06
aF1.47527e-06
aF3.51976e-06
aF1.76984e-05
aF3.9345e-06
aF1.18956e-05
aF7.84187e-07
aF2.25447e-06
aF3.07337e-08
aF1.11563e-05
aF9.26906e-05
aF4.02338e-07
aF7.17121e-08
aF3.24234e-06
aF5.24344e-07
aF4.31601e-06
aF2.46386e-05
aF1.02446e-08
aF1.75089e-07
aF2.12031e-06
aF3.41725e-05
aF3.56196e-06
aF1.74068e-06
aF1.87198e-07
aF1.09896e-07
aF1.70208e-05
aF7.34836e-07
aF8.5313e-07
aF1.221e-06
aF6.40678e-06
aF5.26203e-07
aF1.29737e-06
aF2.44939e-07
aF3.09178e-06
aF7.90017e-06
aF1.15867e-05
aF2.59732e-05
aF9.3482e-06
aF8.32568e-06
aF2.81369e-05
aF4.04201e-07
aF7.92602e-05
aF3.14771e-06
aF5.82728e-06
aF6.46348e-07
aF1.59501e-05
aF9.75552e-06
aF1.12754e-05
aF4.13783e-06
aF8.94553e-06
aF2.47734e-07
aF5.58794e-08
atp35
tp36
Rp37
aa(lp38
S'learning_rate'
p39
ag0
(g24
g25
(S'LearningRate'
p40
(lp41
F0.01
aF0.01
aF0.01
aF0.01
aF0.01
aF0.01
aF0.01
aF0.01
aF0.01
aF0.01
aF0.01
aF0.01
aF0.01
aF0.01
aF0.01
aF0.01
aF0.01
aF0.01
aF0.01
aF0.01
aF0.01
aF0.01
aF0.01
aF0.01
aF0.01
aF0.01
aF0.01
aF0.01
aF0.01
aF0.01
aF0.01
aF0.01
aF0.01
aF0.01
aF0.01
aF0.01
aF0.01
aF0.01
aF0.01
aF0.01
aF0.01
aF0.01
aF0.01
aF0.01
aF0.01
aF0.01
aF0.01
aF0.01
aF0.01
aF0.01
aF0.01
aF0.01
aF0.01
aF0.01
aF0.01
aF0.01
aF0.01
aF0.01
aF0.01
aF0.01
aF0.01
aF0.01
aF0.01
aF0.01
aF0.01
aF0.01
aF0.01
aF0.01
aF0.01
aF0.01
aF0.01
aF0.01
aF0.01
aF0.01
aF0.01
aF0.01
aF0.01
aF0.01
aF0.01
aF0.01
aF0.01
aF0.01
aF0.01
aF0.01
aF0.01
aF0.01
aF0.01
aF0.01
aF0.01
aF0.01
aF0.01
aF0.01
aF0.01
aF0.01
aF0.01
aF0.01
aF0.01
aF0.01
aF0.01
aF0.01
aF0.01
aF0.01
aF0.01
aF0.01
aF0.01
aF0.01
aF0.01
aF0.01
aF0.01
aF0.01
aF0.01
aF0.01
aF0.01
aF0.01
aF0.01
aF0.01
aF0.01
aF0.01
aF0.01
aF0.01
aF0.01
aF0.01
aF0.01
aF0.01
aF0.01
aF0.01
aF0.01
aF0.01
aF0.01
aF0.01
aF0.01
aF0.01
aF0.01
aF0.01
aF0.01
aF0.01
aF0.01
aF0.01
aF0.01
aF0.01
aF0.01
aF0.01
aF0.01
aF0.01
aF0.01
aF0.01
aF0.01
aF0.01
aF0.01
aF0.01
aF0.01
aF0.01
aF0.01
aF0.01
aF0.01
aF0.01
aF0.01
aF0.01
aF0.01
aF0.01
aF0.01
aF0.01
aF0.01
aF0.01
aF0.01
aF0.01
aF0.01
aF0.01
aF0.01
aF0.01
aF0.01
aF0.01
aF0.01
aF0.01
aF0.01
aF0.01
aF0.01
aF0.01
aF0.01
aF0.01
aF0.01
aF0.01
aF0.01
aF0.01
aF0.01
aF0.01
aF0.01
aF0.01
aF0.01
aF0.01
aF0.01
aF0.01
aF0.01
aF0.01
aF0.01
aF0.01
aF0.01
aF0.01
aF0.01
aF0.01
aF0.01
aF0.01
aF0.01
aF0.01
aF0.01
aF0.01
aF0.01
aF0.01
aF0.01
aF0.01
aF0.01
aF0.01
aF0.01
aF0.01
aF0.01
aF0.01
aF0.01
aF0.01
aF0.01
aF0.01
aF0.01
aF0.01
aF0.01
aF0.01
aF0.01
aF0.01
aF0.01
aF0.01
aF0.01
aF0.01
aF0.01
aF0.01
aF0.01
aF0.01
aF0.01
aF0.01
aF0.01
aF0.01
aF0.01
aF0.01
aF0.01
aF0.01
aF0.01
aF0.01
aF0.01
aF0.01
aF0.01
aF0.01
aF0.01
aF0.01
aF0.01
aF0.01
aF0.01
aF0.01
aF0.01
aF0.01
aF0.01
aF0.01
aF0.01
aF0.01
aF0.01
aF0.01
aF0.01
aF0.01
aF0.01
aF0.01
aF0.01
aF0.01
aF0.01
aF0.01
aF0.01
aF0.01
aF0.01
aF0.01
aF0.001
aF0.001
aF0.001
aF0.001
aF0.001
aF0.001
aF0.001
aF0.001
aF0.001
aF0.001
aF0.001
aF0.001
aF0.001
aF0.001
aF0.001
aF0.001
aF0.001
aF0.001
aF0.001
aF0.001
aF0.001
aF0.001
aF0.001
aF0.001
aF0.001
aF0.001
aF0.001
aF0.001
aF0.001
aF0.001
aF0.001
aF0.001
aF0.001
aF0.001
aF0.001
aF0.001
aF0.001
aF0.001
aF0.001
aF0.001
aF0.001
aF0.001
aF0.001
aF0.001
aF0.001
aF0.001
aF0.001
aF0.001
aF0.001
aF0.001
aF0.001
aF0.001
aF0.001
aF0.001
aF0.001
aF0.001
aF0.001
aF0.001
aF0.001
aF0.001
aF0.001
aF0.001
aF0.001
aF0.001
aF0.001
aF0.001
aF0.001
aF0.001
aF0.001
aF0.001
aF0.001
aF0.001
aF0.001
aF0.001
aF0.001
aF0.001
aF0.001
aF0.001
aF0.001
aF0.001
aF0.001
aF0.001
aF0.001
aF0.001
aF0.001
aF0.001
aF0.001
aF0.001
aF0.001
aF0.001
aF0.001
aF0.001
aF0.001
aF0.001
aF0.001
aF0.001
aF0.001
aF0.001
aF0.001
aF0.001
aF0.001
aF0.001
aF0.001
aF0.001
aF0.001
aF0.001
aF0.001
aF0.001
aF0.001
aF0.001
aF0.001
aF0.001
aF0.001
aF0.001
aF0.001
aF0.001
aF0.001
aF0.001
aF0.001
aF0.001
aF0.001
aF0.001
aF0.001
aF0.001
aF0.001
aF0.001
aF0.001
aF0.001
aF0.001
aF0.001
aF0.001
aF0.001
aF0.001
aF0.001
aF0.001
aF0.001
aF0.001
aF0.001
aF0.001
aF0.001
aF0.001
aF0.001
aF0.001
aF0.001
aF0.001
aF0.001
aF0.001
aF0.001
aF0.001
aF0.001
aF0.001
aF0.001
aF0.001
aF0.001
aF0.001
aF0.001
aF0.001
aF0.001
aF0.001
aF0.001
aF0.001
aF0.001
aF0.001
aF0.001
aF0.001
aF0.001
aF0.001
aF0.001
aF0.001
aF0.001
aF0.001
aF0.001
aF0.001
aF0.001
aF0.001
aF0.001
aF0.001
aF0.001
aF0.001
aF0.001
aF0.001
aF0.001
aF0.001
aF0.001
aF0.001
aF0.001
aF0.001
aF0.001
aF0.001
aF0.001
aF0.001
aF0.001
aF0.001
aF0.001
aF0.001
aF0.001
aF0.001
aF0.001
aF0.001
aF0.001
aF0.001
aF0.001
aF0.001
aF0.001
aF0.001
aF0.001
aF0.001
aF0.001
aF0.001
aF0.001
aF0.001
aF0.001
aF0.001
aF0.001
aF0.001
aF0.001
aF0.001
aF0.001
aF0.001
aF0.001
aF0.001
aF0.001
aF0.001
aF0.001
aF0.001
aF0.001
aF0.001
aF0.001
aF0.001
aF0.001
aF0.001
aF0.001
aF0.001
aF0.001
aF0.001
aF0.001
aF0.001
aF0.001
aF0.001
aF0.001
aF0.001
aF0.001
aF0.001
aF0.001
aF0.001
aF0.001
aF0.001
aF0.001
aF0.001
aF0.001
aF0.001
aF0.001
aF0.001
aF0.001
aF0.001
aF0.001
aF0.001
aF0.001
aF0.001
aF0.001
aF0.001
aF0.001
aF0.001
aF0.001
aF0.001
aF0.001
aF0.001
aF0.001
aF0.001
aF0.001
aF0.001
aF0.001
aF0.001
aF0.001
aF0.0001
aF0.0001
aF0.0001
aF0.0001
aF0.0001
aF0.0001
aF0.0001
aF0.0001
aF0.0001
aF0.0001
aF0.0001
aF0.0001
aF0.0001
aF0.0001
aF0.0001
aF0.0001
aF0.0001
aF0.0001
aF0.0001
aF0.0001
aF0.0001
aF0.0001
aF0.0001
aF0.0001
aF0.0001
aF0.0001
aF0.0001
aF0.0001
aF0.0001
aF0.0001
aF0.0001
aF0.0001
aF0.0001
aF0.0001
aF0.0001
aF0.0001
aF0.0001
aF0.0001
aF0.0001
aF0.0001
aF0.0001
aF0.0001
aF0.0001
aF0.0001
aF0.0001
aF0.0001
aF0.0001
aF0.0001
aF0.0001
aF0.0001
aF0.0001
aF0.0001
aF0.0001
aF0.0001
aF0.0001
aF0.0001
aF0.0001
aF0.0001
aF0.0001
aF0.0001
aF0.0001
aF0.0001
aF0.0001
aF0.0001
aF0.0001
aF0.0001
aF0.0001
aF0.0001
aF0.0001
aF0.0001
aF0.0001
aF0.0001
aF0.0001
aF0.0001
aF0.0001
aF0.0001
aF0.0001
aF0.0001
aF0.0001
aF0.0001
aF0.0001
aF0.0001
aF0.0001
aF0.0001
aF0.0001
aF0.0001
aF0.0001
aF0.0001
aF0.0001
aF0.0001
aF0.0001
aF0.0001
aF0.0001
aF0.0001
aF0.0001
aF0.0001
aF0.0001
aF0.0001
aF0.0001
aF0.0001
aF0.0001
aF0.0001
aF0.0001
aF0.0001
aF0.0001
aF0.0001
aF0.0001
aF0.0001
aF0.0001
aF0.0001
aF0.0001
aF0.0001
aF0.0001
aF0.0001
aF0.0001
aF0.0001
aF0.0001
aF0.0001
aF0.0001
aF0.0001
aF0.0001
aF0.0001
aF0.0001
aF0.0001
aF0.0001
aF0.0001
aF0.0001
aF0.0001
aF0.0001
aF0.0001
aF0.0001
aF0.0001
aF0.0001
aF0.0001
aF0.0001
aF0.0001
aF0.0001
aF0.0001
aF0.0001
aF0.0001
aF0.0001
aF0.0001
aF0.0001
aF0.0001
aF0.0001
aF0.0001
aF0.0001
aF0.0001
aF0.0001
aF0.0001
aF0.0001
aF0.0001
aF0.0001
aF0.0001
aF0.0001
aF0.0001
aF0.0001
aF0.0001
aF0.0001
aF0.0001
aF0.0001
aF0.0001
aF0.0001
aF0.0001
aF0.0001
aF0.0001
aF0.0001
aF0.0001
aF0.0001
aF0.0001
aF0.0001
aF0.0001
aF0.0001
aF0.0001
aF0.0001
aF0.0001
aF0.0001
aF0.0001
aF0.0001
aF0.0001
aF0.0001
aF0.0001
aF0.0001
aF0.0001
aF0.0001
aF0.0001
aF0.0001
aF0.0001
aF0.0001
aF0.0001
aF0.0001
aF0.0001
aF0.0001
aF0.0001
aF0.0001
aF0.0001
aF0.0001
aF0.0001
aF0.0001
aF0.0001
aF0.0001
aF0.0001
aF0.0001
aF0.0001
aF0.0001
aF0.0001
aF0.0001
aF0.0001
aF0.0001
aF0.0001
aF0.0001
aF0.0001
aF0.0001
aF0.0001
aF0.0001
aF0.0001
aF0.0001
aF0.0001
aF0.0001
aF0.0001
aF0.0001
aF0.0001
aF0.0001
aF0.0001
aF0.0001
aF0.0001
aF0.0001
aF0.0001
aF0.0001
aF0.0001
aF0.0001
aF0.0001
aF0.0001
aF0.0001
aF0.0001
aF0.0001
aF0.0001
aF0.0001
aF0.0001
aF0.0001
aF0.0001
aF0.0001
aF0.0001
aF0.0001
aF0.0001
aF0.0001
aF0.0001
aF0.0001
aF0.0001
aF0.0001
aF0.0001
aF0.0001
aF0.0001
aF0.0001
aF0.0001
aF0.0001
aF0.0001
aF0.0001
aF0.0001
aF0.0001
aF0.0001
aF0.0001
aF0.0001
aF0.0001
aF0.0001
aF0.0001
aF0.0001
aF0.0001
aF0.0001
aF0.0001
aF0.0001
aF0.0001
aF0.0001
aF0.0001
aF1e-05
aF1e-05
aF1e-05
aF1e-05
aF1e-05
aF1e-05
aF1e-05
aF1e-05
atp42
tp43
Rp44
aatp45
Rp46
sS'val_outputs'
p47
g20
((lp48
(lp49
g23
ag0
(g24
g25
(g26
(lp50
I0
aF1.0
aF2.0
aF3.0
aF4.0
aF5.0
aF6.0
aF7.0
aF8.0
aF9.0
aF10.0
aF11.0
aF12.0
aF13.0
aF14.0
aF15.0
aF16.0
aF17.0
aF18.0
aF19.0
aF20.0
aF21.0
aF22.0
aF23.0
aF24.0
aF25.0
aF26.0
aF27.0
aF28.0
aF29.0
aF30.0
aF31.0
aF32.0
aF33.0
aF34.0
aF35.0
aF36.0
aF37.0
aF38.0
aF39.0
aF40.0
aF41.0
aF42.0
aF43.0
aF44.0
aF45.0
aF46.0
aF47.0
aF48.0
aF49.0
aF50.0
aF51.0
aF52.0
aF53.0
aF54.0
aF55.0
aF56.0
aF57.0
aF58.0
aF59.0
aF60.0
aF61.0
aF62.0
aF63.0
aF64.0
aF65.0
aF66.0
aF67.0
aF68.0
aF69.0
aF70.0
aF71.0
aF72.0
aF73.0
aF74.0
aF75.0
aF76.0
aF77.0
aF78.0
aF79.0
aF80.0
aF81.0
aF82.0
aF83.0
aF84.0
aF85.0
aF86.0
aF87.0
aF88.0
aF89.0
aF90.0
aF91.0
aF92.0
aF93.0
aF94.0
aF95.0
aF96.0
aF97.0
aF98.0
aF99.0
aF100.0
atp51
tp52
Rp53
aa(lp54
S'accuracy'
p55
ag0
(g24
g25
(S'Accuracy'
p56
(lp57
F0.291945
aF0.970588
aF0.993316
aF0.992981
aF0.995321
aF0.996992
aF0.995989
aF0.997828
aF0.998329
aF0.99883
aF0.998496
aF0.998496
aF0.99883
aF0.999164
aF0.996992
aF0.998997
aF0.998663
aF0.999499
aF0.998162
aF0.999164
aF0.999164
aF0.998997
aF0.999164
aF0.998496
aF0.999666
aF0.998997
aF0.998329
aF0.998162
aF0.998329
aF0.998997
aF0.999332
aF0.999332
aF0.99883
aF0.999499
aF0.999499
aF0.999499
aF0.999499
aF0.999499
aF0.999499
aF0.999499
aF0.999666
aF0.999499
aF0.999499
aF0.999499
aF0.999666
aF0.999666
aF0.999666
aF0.999666
aF0.999666
aF0.999666
aF0.999666
aF0.999666
aF0.999499
aF0.999666
aF0.999666
aF0.999666
aF0.999833
aF0.999666
aF0.999666
aF0.999666
aF0.999666
aF0.999666
aF0.999666
aF0.999666
aF0.999666
aF0.999666
aF0.999499
aF0.999499
aF0.999499
aF0.999499
aF0.999499
aF0.999499
aF0.999499
aF0.999499
aF0.999499
aF0.999499
aF0.999499
aF0.999499
aF0.999499
aF0.999499
aF0.999499
aF0.999499
aF0.999499
aF0.999499
aF0.999499
aF0.999499
aF0.999499
aF0.999499
aF0.999499
aF0.999499
aF0.999499
aF0.999499
aF0.999499
aF0.999499
aF0.999499
aF0.999499
aF0.999499
aF0.999499
aF0.999499
aF0.999499
aF0.999499
atp58
tp59
Rp60
aa(lp61
S'loss'
p62
ag0
(g24
g25
(S'SoftmaxWithLoss'
p63
(lp64
F0.704885
aF0.0985363
aF0.0207911
aF0.0200919
aF0.0142993
aF0.00907801
aF0.0132262
aF0.0063317
aF0.00503897
aF0.00458278
aF0.00690441
aF0.00509819
aF0.00490948
aF0.00208548
aF0.0103056
aF0.00276766
aF0.00269586
aF0.00374876
aF0.00718783
aF0.0026607
aF0.00145816
aF0.00323937
aF0.00215022
aF0.00616579
aF0.00162423
aF0.00275498
aF0.00834004
aF0.0110986
aF0.00520869
aF0.00295553
aF0.00338983
aF0.00320969
aF0.00351698
aF0.00191792
aF0.00190477
aF0.00191111
aF0.00191663
aF0.00189091
aF0.00192999
aF0.00185516
aF0.00193583
aF0.00185325
aF0.00182387
aF0.00186835
aF0.00184168
aF0.00182492
aF0.00178617
aF0.00174597
aF0.00174211
aF0.00172613
aF0.00171706
aF0.00170845
aF0.00170628
aF0.00172018
aF0.00171742
aF0.00181551
aF0.00179166
aF0.00175724
aF0.00168226
aF0.00167285
aF0.0016515
aF0.00162515
aF0.0016167
aF0.00159835
aF0.00159408
aF0.00157133
aF0.00155833
aF0.00155034
aF0.00155013
aF0.00154794
aF0.00154743
aF0.00154612
aF0.00154568
aF0.00154111
aF0.00153948
aF0.00153917
aF0.00153797
aF0.00153723
aF0.00153458
aF0.00153421
aF0.00153131
aF0.00153083
aF0.00152991
aF0.00152986
aF0.00152975
aF0.00152954
aF0.00152955
aF0.00152925
aF0.00152845
aF0.00152785
aF0.00152659
aF0.0015262
aF0.00152523
aF0.00152447
aF0.00152542
aF0.00152546
aF0.00152562
aF0.00152491
aF0.00152419
aF0.00152324
aF0.00152299
atp65
tp66
Rp67
aatp68
Rp69
sS'loaded_snapshot_epoch'
p70
NsS'pretrained_model'
p71
NsS'deploy_file'
p72
S'deploy.prototxt'
p73
sS'current_iteration'
p74
I14100
sS'gpu_count'
p75
I1
sS'rms_decay'
p76
F0.99
sS'traces_interval'
p77
I0
sS'train_epochs'
p78
I100
sS'network'
p79
ccaffe_pb2
NetParameter
p80
(tRp81
(dp82
S'serialized'
p83
S'\n\x07AlexNet\xa2\x066\n\ntrain-data\x12\x04Data"\x04data"\x05labelB\x07"\x05train\xa2\x06\x05\x10\x01\x18\xe3\x01\xda\x06\x03 \x80\x01\xa2\x06/\n\x08val-data\x12\x04Data"\x04data"\x05labelB\x05"\x03val\xa2\x06\x03\x18\xe3\x01\xda\x06\x02  \xa2\x06d\n\x05conv1\x12\x0bConvolution\x1a\x04data"\x05conv12\n\x1d\x00\x00\x80?%\x00\x00\x80?2\n\x1d\x00\x00\x00@%\x00\x00\x00\x00\xd2\x06(\x08  \x080\x04:\x0f\n\x08gaussian5\n\xd7#<B\x0f\n\x08constant\x15\x00\x00\x00\x00\xa2\x06\x1b\n\x05relu1\x12\x04ReLU\x1a\x05conv1"\x05conv1\xa2\x06)\n\x05norm1\x12\x03LRN\x1a\x05conv1"\x05norm1\xb2\x07\x0c\x08\x05\x15\x17\xb7\xd18\x1d\x00\x00@?\xa2\x06\'\n\x05pool1\x12\x07Pooling\x1a\x05norm1"\x05pool1\xca\x07\x06\x08\x00\x10\x03\x18\x01\xa2\x06g\n\x05conv2\x12\x0bConvolution\x1a\x05pool1"\x05conv22\n\x1d\x00\x00\x80?%\x00\x00\x80?2\n\x1d\x00\x00\x00@%\x00\x00\x00\x00\xd2\x06*\x08@\x18\x00 \x040\x02:\x0f\n\x08gaussian5\n\xd7#<B\x0f\n\x08constant\x15\x00\x00\x00\x00\xa2\x06\x1b\n\x05relu2\x12\x04ReLU\x1a\x05conv2"\x05conv2\xa2\x06g\n\x05conv3\x12\x0bConvolution\x1a\x05conv2"\x05conv32\n\x1d\x00\x00\x80?%\x00\x00\x80?2\n\x1d\x00\x00\x00@%\x00\x00\x00\x00\xd2\x06*\x08@\x18\x00 \x030\x01:\x0f\n\x08gaussian5\n\xd7#<B\x0f\n\x08constant\x15\x00\x00\x00\x00\xa2\x06\x1b\n\x05relu3\x12\x04ReLU\x1a\x05conv3"\x05conv3\xa2\x06_\n\x03fc7\x12\x0cInnerProduct\x1a\x05conv3"\x03fc72\n\x1d\x00\x00\x80?%\x00\x00\x80?2\n\x1d\x00\x00\x00@%\x00\x00\x00\x00\xaa\x07%\x08\x80\x04\x1a\x0f\n\x08gaussian5\n\xd7\xa3;"\x0f\n\x08constant\x15\xcd\xcc\xcc=\xa2\x06\x17\n\x05relu7\x12\x04ReLU\x1a\x03fc7"\x03fc7\xa2\x06"\n\x05drop7\x12\x07Dropout\x1a\x03fc7"\x03fc7\xe2\x06\x05\r\x00\x00\x00?\xa2\x06r\n\x1bfc8_retrain_retrain_retrain\x12\x0cInnerProduct\x1a\x03fc7"\x03fc82\n\x1d\x00\x00\x80?%\x00\x00\x80?2\n\x1d\x00\x00\x00@%\x00\x00\x00\x00\xaa\x07"\x1a\x0f\n\x08gaussian5\n\xd7#<"\x0f\n\x08constant\x15\x00\x00\x00\x00\xa2\x061\n\x08accuracy\x12\x08Accuracy\x1a\x03fc8\x1a\x05label"\x08accuracyB\x05"\x03val\xa2\x063\n\x04loss\x12\x0fSoftmaxWithLoss\x1a\x03fc8\x1a\x05label"\x04lossJ\x08"\x06deploy\xa2\x06*\n\x07softmax\x12\x07Softmax\x1a\x03fc8"\x07softmaxB\x08"\x06deploy'
p84
sbsS'use_mean'
p85
Vimage
p86
sS'model_file'
p87
S'original.prototxt'
p88
sS'job_dir'
p89
S'/home/fei/digits/digits/jobs/20180416-140802-5ed7'
p90
sS'receiving_val_output'
p91
I00
sS'parents'
p92
NsS'caffe_flavor'
p93
S'BVLC'
p94
sS'timeline_traces'
p95
(lp96
sS'lr_policy'
p97
(dp98
S'policy'
p99
Vstep
p100
sS'stepsize'
p101
F33.0
sS'gamma'
p102
F0.1
ssS'crop_size'
p103
I110
sS'receiving_train_output'
p104
I00
sS'val_interval'
p105
F1.0
sS'current_epoch'
p106
F100.0
sS'random_seed'
p107
NsS'saving_snapshot'
p108
I00
sS'pickver_task_caffe_train'
p109
I5
sg39
F0.01
sS'loaded_snapshot_file'
p110
NsS'batch_size'
p111
NsS'digits_version'
p112
S'6.1.1'
p113
sS'job'
p114
g4
sS'pickver_task_train'
p115
I2
sS'current_resources'
p116
NsS'pickver_task'
p117
I1
sS'job_id'
p118
S'20180416-140802-5ed7'
p119
sS'exception'
p120
NsS'data_aug'
p121
(dp122
S'scale'
p123
F0.0
sS'hsv_use'
p124
I00
sS'flip'
p125
Vnone
p126
sS'quad_rot'
p127
Vnone
p128
sS'noise'
p129
F0.0
sS'whitening'
p130
I00
sS'hsv_h'
p131
F0.02
sS'hsv_s'
p132
F0.04
sS'rot'
p133
I0
sS'hsv_v'
p134
F0.06
sS'contrast'
p135
F0.0
ssS'selected_gpus'
p136
NsS'solver'
p137
ccaffe_pb2
SolverParameter
p138
(tRp139
(dp140
g83
S'\x18\xbb\x01 \x8d\x01-\n\xd7#<0\x118\x94nB\x04stepM\xcd\xcc\xcc=]fff?e\x17\xb7\xd18h\xad$p\x8d\x01z\x08snapshot\x88\x01\x01\xc2\x01\x12train_val.prototxt\xf0\x01\x00'
p141
sbsS'snapshot_prefix'
p142
S'snapshot'
p143
sS'traceback'
p144
NsS'framework_id'
p145
S'caffe'
p146
sS'status_history'
p147
(lp148
((idigits.status
Status
p149
S'I'
p151
bF1523880482.953195
tp152
a((idigits.status
Status
p153
S'R'
p154
bF1523880484.33958
tp155
a((idigits.status
Status
p156
S'D'
p157
bF1523882965.491131
tp158
asS'last_train_update'
p159
F1523882956.478619
sS'train_val_file'
p160
S'train_val.prototxt'
p161
sS'image_mean'
p162
NsS'batch_accumulation'
p163
NsS'progress'
p164
F1.0
sS'log_file'
p165
S'caffe_output.log'
p166
sS'solver_file'
p167
S'solver.prototxt'
p168
sS'solver_type'
p169
VSGD
p170
sbasS'pickver_job'
p171
I2
sS'dataset_id'
p172
S'20180416-002052-9173'
p173
sS'pickver_job_model_image'
p174
I1
sg120
NsS'group'
p175
V
p176
sS'persistent'
p177
I01
sS'_name'
p178
Vrobot_110_2class_DQN_1max
p179
sS'form_data'
p180
(dp181
S'form.standard_networks.data'
p182
VNone
p183
sS'form.learning_rate.data'
p184
(lp185
F0.01
asS'form.model_name.data'
p186
g179
sS'form.aug_flip.data'
p187
g126
sS'form.select_gpus.data'
p188
(lp189
sS'form.framework.data'
p190
Vcaffe
p191
sS'form.dataset.data'
p192
V20180416-002052-9173
p193
sS'form.python_layer_from_client.data'
p194
I00
sS'form.lr_multistep_values.data'
p195
V50,85
p196
sS'form.aug_hsv_s.data'
p197
F0.04
sS'form.lr_sigmoid_gamma.data'
p198
F0.1
sS'form.lr_policy.data'
p199
g100
sS'form.random_seed.data'
p200
NsS'form.aug_rot.data'
p201
I0
sS'form.previous_networks.data'
p202
V20180416-124350-8a99
p203
sS'form.python_layer_client_file.data'
p204
g176
sS'form.aug_quad_rot.data'
p205
g128
sS'form.rms_decay.data'
p206
F0.99
sS'form.method.data'
p207
Vprevious
p208
sS'form.lr_sigmoid_step.data'
p209
F50.0
sS'form.crop_size.data'
p210
NsS'form.select_gpu_count.data'
p211
I1
sS'form.python_layer_server_file.data'
p212
g176
sS'form.pretrained_networks.data'
p213
VNone
p214
sS'form.solver_type.data'
p215
g170
sS'form.aug_noise.data'
p216
F0.0
sS'form.select_gpus_list.data'
p217
g176
sS'form.traces_interval.data'
p218
I0
sS'form.shuffle.data'
p219
I01
sS'form.aug_scale.data'
p220
F0.0
sS'form.batch_accumulation.data'
p221
NsS'form.custom_network.data'
p222
g176
sS'form.group_name.data'
p223
g176
sS'form.val_interval.data'
p224
F1.0
sS'form.lr_inv_gamma.data'
p225
F0.1
sS'form.lr_poly_power.data'
p226
F3.0
sS'form.snapshot_interval.data'
p227
F1.0
sS'form.lr_step_size.data'
p228
F33.0
sS'form.aug_hsv_use.data'
p229
I00
sS'form.lr_inv_power.data'
p230
F0.5
sS'form.aug_whitening.data'
p231
I00
sS'form.aug_hsv_v.data'
p232
F0.06
sS'form.custom_network_snapshot.data'
p233
g176
sS'form.lr_step_gamma.data'
p234
F0.1
sS'form.lr_multistep_gamma.data'
p235
F0.5
sS'form.select_gpu.data'
p236
Vnext
p237
sS'form.lr_exp_gamma.data'
p238
F0.95
sS'form.use_mean.data'
p239
g86
sS'form.aug_contrast.data'
p240
F0.0
sS'form.train_epochs.data'
p241
I100
sS'form.batch_size.data'
p242
(lp243
NasS'form.aug_hsv_h.data'
p244
F0.02
ssg164
F1.0
sS'_id'
p245
S'20180416-140802-5ed7'
p246
sS'pickver_job_dataset'
p247
I1
sg147
(lp248
((idigits.status
Status
p249
g151
bF1523880482.95265
tp250
a((idigits.status
Status
p251
g154
bF1523880484.109008
tp252
a((idigits.status
Status
p253
g157
bF1523882965.620729
tp254
asS'pickver_job_model_image_classification'
p255
I1
sb.