ccopy_reg
_reconstructor
p0
(cdigits.model.images.classification.job
ImageClassificationModelJob
p1
c__builtin__
object
p2
Ntp3
Rp4
(dp5
S'username'
p6
Visaac
p7
sS'_notes'
p8
NsS'tasks'
p9
(lp10
g0
(cdigits.model.tasks.caffe_train
CaffeTrainTask
p11
g2
Ntp12
Rp13
(dp14
S'traceback'
p15
NsS'shuffle'
p16
I01
sS'snapshot_interval'
p17
F100.0
sS'train_outputs'
p18
ccollections
OrderedDict
p19
((lp20
(lp21
S'epoch'
p22
ag0
(cdigits.model.tasks.train
NetworkOutput
p23
c__builtin__
tuple
p24
(S'Epoch'
p25
(lp26
I0
aF0.12
aF0.24
aF0.36
aF0.48
aF0.6
aF0.72
aF0.84
aF0.96
aF1.08
aF1.2
aF1.32
aF1.44
aF1.56
aF1.68
aF1.8
aF1.92
aF2.04
aF2.16
aF2.28
aF2.4
aF2.52
aF2.64
aF2.76
aF2.88
aF3.0
aF3.12
aF3.24
aF3.36
aF3.48
aF3.6
aF3.72
aF3.84
aF3.96
aF4.08
aF4.2
aF4.32
aF4.44
aF4.56
aF4.68
aF4.8
aF4.92
aF5.04
aF5.16
aF5.28
aF5.4
aF5.52
aF5.64
aF5.76
aF5.88
aF6.0
aF6.12
aF6.24
aF6.36
aF6.48
aF6.6
aF6.72
aF6.84
aF6.96
aF7.08
aF7.2
aF7.32
aF7.44
aF7.56
aF7.68
aF7.8
aF7.92
aF8.04
aF8.16
aF8.28
aF8.4
aF8.52
aF8.64
aF8.76
aF8.88
aF9.0
aF9.12
aF9.24
aF9.36
aF9.48
aF9.6
aF9.72
aF9.84
aF9.96
aF10.08
aF10.2
aF10.32
aF10.44
aF10.56
aF10.68
aF10.8
aF10.92
aF11.04
aF11.16
aF11.28
aF11.4
aF11.52
aF11.64
aF11.76
aF11.88
aF12.0
aF12.12
aF12.24
aF12.36
aF12.48
aF12.6
aF12.72
aF12.84
aF12.96
aF13.08
aF13.2
aF13.32
aF13.44
aF13.56
aF13.68
aF13.8
aF13.92
aF14.04
aF14.16
aF14.28
aF14.4
aF14.52
aF14.64
aF14.76
aF14.88
aF15.0
aF15.12
aF15.24
aF15.36
aF15.48
aF15.6
aF15.72
aF15.84
aF15.96
aF16.08
aF16.2
aF16.32
aF16.44
aF16.56
aF16.68
aF16.8
aF16.92
aF17.04
aF17.16
aF17.28
aF17.4
aF17.52
aF17.64
aF17.76
aF17.88
aF18.0
aF18.12
aF18.24
aF18.36
aF18.48
aF18.6
aF18.72
aF18.84
aF18.96
aF19.08
aF19.2
aF19.32
aF19.44
aF19.56
aF19.68
aF19.8
aF19.92
aF20.04
aF20.16
aF20.28
aF20.4
aF20.52
aF20.64
aF20.76
aF20.88
aF21.0
aF21.12
aF21.24
aF21.36
aF21.48
aF21.6
aF21.72
aF21.84
aF21.96
aF22.08
aF22.2
aF22.32
aF22.44
aF22.56
aF22.68
aF22.8
aF22.92
aF23.04
aF23.16
aF23.28
aF23.4
aF23.52
aF23.64
aF23.76
aF23.88
aF24.0
aF24.12
aF24.24
aF24.36
aF24.48
aF24.6
aF24.72
aF24.84
aF24.96
aF25.08
aF25.2
aF25.32
aF25.44
aF25.56
aF25.68
aF25.8
aF25.92
aF26.04
aF26.16
aF26.28
aF26.4
aF26.52
aF26.64
aF26.76
aF26.88
aF27.0
aF27.12
aF27.24
aF27.36
aF27.48
aF27.6
aF27.72
aF27.84
aF27.96
aF28.08
aF28.2
aF28.32
aF28.44
aF28.56
aF28.68
aF28.8
aF28.92
aF29.04
aF29.16
aF29.28
aF29.4
aF29.52
aF29.64
aF29.76
aF29.88
aF30.0
aF30.12
aF30.24
aF30.36
aF30.48
aF30.6
aF30.72
aF30.84
aF30.96
aF31.08
aF31.2
aF31.32
aF31.44
aF31.56
aF31.68
aF31.8
aF31.92
aF32.04
aF32.16
aF32.28
aF32.4
aF32.52
aF32.64
aF32.76
aF32.88
aF33.0
aF33.12
aF33.24
aF33.36
aF33.48
aF33.6
aF33.72
aF33.84
aF33.96
aF34.08
aF34.2
aF34.32
aF34.44
aF34.56
aF34.68
aF34.8
aF34.92
aF35.04
aF35.16
aF35.28
aF35.4
aF35.52
aF35.64
aF35.76
aF35.88
aF36.0
aF36.12
aF36.24
aF36.36
aF36.48
aF36.6
aF36.72
aF36.84
aF36.96
aF37.08
aF37.2
aF37.32
aF37.44
aF37.56
aF37.68
aF37.8
aF37.92
aF38.04
aF38.16
aF38.28
aF38.4
aF38.52
aF38.64
aF38.76
aF38.88
aF39.0
aF39.12
aF39.24
aF39.36
aF39.48
aF39.6
aF39.72
aF39.84
aF39.96
aF40.08
aF40.2
aF40.32
aF40.44
aF40.56
aF40.68
aF40.8
aF40.92
aF41.04
aF41.16
aF41.28
aF41.4
aF41.52
aF41.64
aF41.76
aF41.88
aF42.0
aF42.12
aF42.24
aF42.36
aF42.48
aF42.6
aF42.72
aF42.84
aF42.96
aF43.08
aF43.2
aF43.32
aF43.44
aF43.56
aF43.68
aF43.8
aF43.92
aF44.04
aF44.16
aF44.28
aF44.4
aF44.52
aF44.64
aF44.76
aF44.88
aF45.0
aF45.12
aF45.24
aF45.36
aF45.48
aF45.6
aF45.72
aF45.84
aF45.96
aF46.08
aF46.2
aF46.32
aF46.44
aF46.56
aF46.68
aF46.8
aF46.92
aF47.04
aF47.16
aF47.28
aF47.4
aF47.52
aF47.64
aF47.76
aF47.88
aF48.0
aF48.12
aF48.24
aF48.36
aF48.48
aF48.6
aF48.72
aF48.84
aF48.96
aF49.08
aF49.2
aF49.32
aF49.44
aF49.56
aF49.68
aF49.8
aF49.92
aF50.04
aF50.16
aF50.28
aF50.4
aF50.52
aF50.64
aF50.76
aF50.88
aF51.0
aF51.12
aF51.24
aF51.36
aF51.48
aF51.6
aF51.72
aF51.84
aF51.96
aF52.08
aF52.2
aF52.32
aF52.44
aF52.56
aF52.68
aF52.8
aF52.92
aF53.04
aF53.16
aF53.28
aF53.4
aF53.52
aF53.64
aF53.76
aF53.88
aF54.0
aF54.12
aF54.24
aF54.36
aF54.48
aF54.6
aF54.72
aF54.84
aF54.96
aF55.08
aF55.2
aF55.32
aF55.44
aF55.56
aF55.68
aF55.8
aF55.92
aF56.04
aF56.16
aF56.28
aF56.4
aF56.52
aF56.64
aF56.76
aF56.88
aF57.0
aF57.12
aF57.24
aF57.36
aF57.48
aF57.6
aF57.72
aF57.84
aF57.96
aF58.08
aF58.2
aF58.32
aF58.44
aF58.56
aF58.68
aF58.8
aF58.92
aF59.04
aF59.16
aF59.28
aF59.4
aF59.52
aF59.64
aF59.76
aF59.88
aF60.0
aF60.12
aF60.24
aF60.36
aF60.48
aF60.6
aF60.72
aF60.84
aF60.96
aF61.08
aF61.2
aF61.32
aF61.44
aF61.56
aF61.68
aF61.8
aF61.92
aF62.04
aF62.16
aF62.28
aF62.4
aF62.52
aF62.64
aF62.76
aF62.88
aF63.0
aF63.12
aF63.24
aF63.36
aF63.48
aF63.6
aF63.72
aF63.84
aF63.96
aF64.08
aF64.2
aF64.32
aF64.44
aF64.56
aF64.68
aF64.8
aF64.92
aF65.04
aF65.16
aF65.28
aF65.4
aF65.52
aF65.64
aF65.76
aF65.88
aF66.0
aF66.12
aF66.24
aF66.36
aF66.48
aF66.6
aF66.72
aF66.84
aF66.96
aF67.08
aF67.2
aF67.32
aF67.44
aF67.56
aF67.68
aF67.8
aF67.92
aF68.04
aF68.16
aF68.28
aF68.4
aF68.52
aF68.64
aF68.76
aF68.88
aF69.0
aF69.12
aF69.24
aF69.36
aF69.48
aF69.6
aF69.72
aF69.84
aF69.96
aF70.08
aF70.2
aF70.32
aF70.44
aF70.56
aF70.68
aF70.8
aF70.92
aF71.04
aF71.16
aF71.28
aF71.4
aF71.52
aF71.64
aF71.76
aF71.88
aF72.0
aF72.12
aF72.24
aF72.36
aF72.48
aF72.6
aF72.72
aF72.84
aF72.96
aF73.08
aF73.2
aF73.32
aF73.44
aF73.56
aF73.68
aF73.8
aF73.92
aF74.04
aF74.16
aF74.28
aF74.4
aF74.52
aF74.64
aF74.76
aF74.88
aF75.0
aF75.12
aF75.24
aF75.36
aF75.48
aF75.6
aF75.72
aF75.84
aF75.96
aF76.08
aF76.2
aF76.32
aF76.44
aF76.56
aF76.68
aF76.8
aF76.92
aF77.04
aF77.16
aF77.28
aF77.4
aF77.52
aF77.64
aF77.76
aF77.88
aF78.0
aF78.12
aF78.24
aF78.36
aF78.48
aF78.6
aF78.72
aF78.84
aF78.96
aF79.08
aF79.2
aF79.32
aF79.44
aF79.56
aF79.68
aF79.8
aF79.92
aF80.04
aF80.16
aF80.28
aF80.4
aF80.52
aF80.64
aF80.76
aF80.88
aF81.0
aF81.12
aF81.24
aF81.36
aF81.48
aF81.6
aF81.72
aF81.84
aF81.96
aF82.08
aF82.2
aF82.32
aF82.44
aF82.56
aF82.68
aF82.8
aF82.92
aF83.04
aF83.16
aF83.28
aF83.4
aF83.52
aF83.64
aF83.76
aF83.88
aF84.0
aF84.12
aF84.24
aF84.36
aF84.48
aF84.6
aF84.72
aF84.84
aF84.96
aF85.08
aF85.2
aF85.32
aF85.44
aF85.56
aF85.68
aF85.8
aF85.92
aF86.04
aF86.16
aF86.28
aF86.4
aF86.52
aF86.64
aF86.76
aF86.88
aF87.0
aF87.12
aF87.24
aF87.36
aF87.48
aF87.6
aF87.72
aF87.84
aF87.96
aF88.08
aF88.2
aF88.32
aF88.44
aF88.56
aF88.68
aF88.8
aF88.92
aF89.04
aF89.16
aF89.28
aF89.4
aF89.52
aF89.64
aF89.76
aF89.88
aF90.0
aF90.12
aF90.24
aF90.36
aF90.48
aF90.6
aF90.72
aF90.84
aF90.96
aF91.08
aF91.2
aF91.32
aF91.44
aF91.56
aF91.68
aF91.8
aF91.92
aF92.04
aF92.16
aF92.28
aF92.4
aF92.52
aF92.64
aF92.76
aF92.88
aF93.0
aF93.12
aF93.24
aF93.36
aF93.48
aF93.6
aF93.72
aF93.84
aF93.96
aF94.08
aF94.2
aF94.32
aF94.44
aF94.56
aF94.68
aF94.8
aF94.92
aF95.04
aF95.16
aF95.28
aF95.4
aF95.52
aF95.64
aF95.76
aF95.88
aF96.0
aF96.12
aF96.24
aF96.36
aF96.48
aF96.6
aF96.72
aF96.84
aF96.96
aF97.08
aF97.2
aF97.32
aF97.44
aF97.56
aF97.68
aF97.8
aF97.92
aF98.04
aF98.16
aF98.28
aF98.4
aF98.52
aF98.64
aF98.76
aF98.88
aF99.0
aF99.12
aF99.24
aF99.36
aF99.48
aF99.6
aF99.72
aF99.84
aF99.96
aF100.08
aF100.2
aF100.32
aF100.44
aF100.56
aF100.68
aF100.8
aF100.92
aF101.04
aF101.16
aF101.28
aF101.4
aF101.52
aF101.64
aF101.76
aF101.88
aF102.0
aF102.12
aF102.24
aF102.36
aF102.48
aF102.6
aF102.72
aF102.84
aF102.96
aF103.08
aF103.2
aF103.32
aF103.44
aF103.56
aF103.68
aF103.8
aF103.92
aF104.04
aF104.16
aF104.28
aF104.4
aF104.52
aF104.64
aF104.76
aF104.88
aF105.0
aF105.12
aF105.24
aF105.36
aF105.48
aF105.6
aF105.72
aF105.84
aF105.96
aF106.08
aF106.2
aF106.32
aF106.44
aF106.56
aF106.68
aF106.8
aF106.92
aF107.04
aF107.16
aF107.28
aF107.4
aF107.52
aF107.64
aF107.76
aF107.88
aF108.0
aF108.12
aF108.24
aF108.36
aF108.48
aF108.6
aF108.72
aF108.84
aF108.96
aF109.08
aF109.2
aF109.32
aF109.44
aF109.56
aF109.68
aF109.8
aF109.92
aF110.04
aF110.16
aF110.28
aF110.4
aF110.52
aF110.64
aF110.76
aF110.88
aF111.0
aF111.12
aF111.24
aF111.36
aF111.48
aF111.6
aF111.72
aF111.84
aF111.96
aF112.08
aF112.2
aF112.32
aF112.44
aF112.56
aF112.68
aF112.8
aF112.92
aF113.04
aF113.16
aF113.28
aF113.4
aF113.52
aF113.64
aF113.76
aF113.88
aF114.0
aF114.12
aF114.24
aF114.36
aF114.48
aF114.6
aF114.72
aF114.84
aF114.96
aF115.08
aF115.2
aF115.32
aF115.44
aF115.56
aF115.68
aF115.8
aF115.92
aF116.04
aF116.16
aF116.28
aF116.4
aF116.52
aF116.64
aF116.76
aF116.88
aF117.0
aF117.12
aF117.24
aF117.36
aF117.48
aF117.6
aF117.72
aF117.84
aF117.96
aF118.08
aF118.2
aF118.32
aF118.44
aF118.56
aF118.68
aF118.8
aF118.92
aF119.04
aF119.16
aF119.28
aF119.4
aF119.52
aF119.64
aF119.76
aF119.88
aF120.0
aF120.12
aF120.24
aF120.36
aF120.48
aF120.6
aF120.72
aF120.84
aF120.96
aF121.08
aF121.2
aF121.32
aF121.44
aF121.56
aF121.68
aF121.8
aF121.92
aF122.04
aF122.16
aF122.28
aF122.4
aF122.52
aF122.64
aF122.76
aF122.88
aF123.0
aF123.12
aF123.24
aF123.36
aF123.48
aF123.6
aF123.72
aF123.84
aF123.96
aF124.08
aF124.2
aF124.32
aF124.44
aF124.56
aF124.68
aF124.8
aF124.92
aF125.04
aF125.16
aF125.28
aF125.4
aF125.52
aF125.64
aF125.76
aF125.88
aF126.0
aF126.12
aF126.24
aF126.36
aF126.48
aF126.6
aF126.72
aF126.84
aF126.96
aF127.08
aF127.2
aF127.32
aF127.44
aF127.56
aF127.68
aF127.8
aF127.92
aF128.04
aF128.16
aF128.28
aF128.4
aF128.52
aF128.64
aF128.76
aF128.88
aF129.0
aF129.12
aF129.24
aF129.36
aF129.48
aF129.6
aF129.72
aF129.84
aF129.96
aF130.08
aF130.2
aF130.32
aF130.44
aF130.56
aF130.68
aF130.8
aF130.92
aF131.04
aF131.16
aF131.28
aF131.4
aF131.52
aF131.64
aF131.76
aF131.88
aF132.0
aF132.12
aF132.24
aF132.36
aF132.48
aF132.6
aF132.72
aF132.84
aF132.96
aF133.08
aF133.2
aF133.32
aF133.44
aF133.56
aF133.68
aF133.8
aF133.92
aF134.04
aF134.16
aF134.28
aF134.4
aF134.52
aF134.64
aF134.76
aF134.88
aF135.0
aF135.12
aF135.24
aF135.36
aF135.48
aF135.6
aF135.72
aF135.84
aF135.96
aF136.08
aF136.2
aF136.32
aF136.44
aF136.56
aF136.68
aF136.8
aF136.92
aF137.04
aF137.16
aF137.28
aF137.4
aF137.52
aF137.64
aF137.76
aF137.88
aF138.0
aF138.12
aF138.24
aF138.36
aF138.48
aF138.6
aF138.72
aF138.84
aF138.96
aF139.08
aF139.2
aF139.32
aF139.44
aF139.56
aF139.68
aF139.8
aF139.92
aF140.04
aF140.16
aF140.28
aF140.4
aF140.52
aF140.64
aF140.76
aF140.88
aF141.0
aF141.12
aF141.24
aF141.36
aF141.48
aF141.6
aF141.72
aF141.84
aF141.96
aF142.08
aF142.2
aF142.32
aF142.44
aF142.56
aF142.68
aF142.8
aF142.92
aF143.04
aF143.16
aF143.28
aF143.4
aF143.52
aF143.64
aF143.76
aF143.88
aF144.0
aF144.12
aF144.24
aF144.36
aF144.48
aF144.6
aF144.72
aF144.84
aF144.96
aF145.08
aF145.2
aF145.32
aF145.44
aF145.56
aF145.68
aF145.8
aF145.92
aF146.04
aF146.16
aF146.28
aF146.4
aF146.52
aF146.64
aF146.76
aF146.88
aF147.0
aF147.12
aF147.24
aF147.36
aF147.48
aF147.6
aF147.72
aF147.84
aF147.96
aF148.08
aF148.2
aF148.32
aF148.44
aF148.56
aF148.68
aF148.8
aF148.92
aF149.04
aF149.16
aF149.28
aF149.4
aF149.52
aF149.64
aF149.76
aF149.88
aF150.0
aF150.12
aF150.24
aF150.36
aF150.48
aF150.6
aF150.72
aF150.84
aF150.96
aF151.08
aF151.2
aF151.32
aF151.44
aF151.56
aF151.68
aF151.8
aF151.92
aF152.04
aF152.16
aF152.28
aF152.4
aF152.52
aF152.64
aF152.76
aF152.88
aF153.0
aF153.12
aF153.24
aF153.36
aF153.48
aF153.6
aF153.72
aF153.84
aF153.96
aF154.08
aF154.2
aF154.32
aF154.44
aF154.56
aF154.68
aF154.8
aF154.92
aF155.04
aF155.16
aF155.28
aF155.4
aF155.52
aF155.64
aF155.76
aF155.88
aF156.0
aF156.12
aF156.24
aF156.36
aF156.48
aF156.6
aF156.72
aF156.84
aF156.96
aF157.08
aF157.2
aF157.32
aF157.44
aF157.56
aF157.68
aF157.8
aF157.92
aF158.04
aF158.16
aF158.28
aF158.4
aF158.52
aF158.64
aF158.76
aF158.88
aF159.0
aF159.12
aF159.24
aF159.36
aF159.48
aF159.6
aF159.72
aF159.84
aF159.96
aF160.08
aF160.2
aF160.32
aF160.44
aF160.56
aF160.68
aF160.8
aF160.92
aF161.04
aF161.16
aF161.28
aF161.4
aF161.52
aF161.64
aF161.76
aF161.88
aF162.0
aF162.12
aF162.24
aF162.36
aF162.48
aF162.6
aF162.72
aF162.84
aF162.96
aF163.08
aF163.2
aF163.32
aF163.44
aF163.56
aF163.68
aF163.8
aF163.92
aF164.04
aF164.16
aF164.28
aF164.4
aF164.52
aF164.64
aF164.76
aF164.88
aF165.0
aF165.12
aF165.24
aF165.36
aF165.48
aF165.6
aF165.72
aF165.84
aF165.96
aF166.08
aF166.2
aF166.32
aF166.44
aF166.56
aF166.68
aF166.8
aF166.92
aF167.04
aF167.16
aF167.28
aF167.4
aF167.52
aF167.64
aF167.76
aF167.88
aF168.0
aF168.12
aF168.24
aF168.36
aF168.48
aF168.6
aF168.72
aF168.84
aF168.96
aF169.08
aF169.2
aF169.32
aF169.44
aF169.56
aF169.68
aF169.8
aF169.92
aF170.04
aF170.16
aF170.28
aF170.4
aF170.52
aF170.64
aF170.76
aF170.88
aF171.0
aF171.12
aF171.24
aF171.36
aF171.48
aF171.6
aF171.72
aF171.84
aF171.96
aF172.08
aF172.2
aF172.32
aF172.44
aF172.56
aF172.68
aF172.8
aF172.92
aF173.04
aF173.16
aF173.28
aF173.4
aF173.52
aF173.64
aF173.76
aF173.88
aF174.0
aF174.12
aF174.24
aF174.36
aF174.48
aF174.6
aF174.72
aF174.84
aF174.96
aF175.08
aF175.2
aF175.32
aF175.44
aF175.56
aF175.68
aF175.8
aF175.92
aF176.04
aF176.16
aF176.28
aF176.4
aF176.52
aF176.64
aF176.76
aF176.88
aF177.0
aF177.12
aF177.24
aF177.36
aF177.48
aF177.6
aF177.72
aF177.84
aF177.96
aF178.08
aF178.2
aF178.32
aF178.44
aF178.56
aF178.68
aF178.8
aF178.92
aF179.04
aF179.16
aF179.28
aF179.4
aF179.52
aF179.64
aF179.76
aF179.88
aF180.0
aF180.12
aF180.24
aF180.36
aF180.48
aF180.6
aF180.72
aF180.84
aF180.96
aF181.08
aF181.2
aF181.32
aF181.44
aF181.56
aF181.68
aF181.8
aF181.92
aF182.04
aF182.16
aF182.28
aF182.4
aF182.52
aF182.64
aF182.76
aF182.88
aF183.0
aF183.12
aF183.24
aF183.36
aF183.48
aF183.6
aF183.72
aF183.84
aF183.96
aF184.08
aF184.2
aF184.32
aF184.44
aF184.56
aF184.68
aF184.8
aF184.92
aF185.04
aF185.16
aF185.28
aF185.4
aF185.52
aF185.64
aF185.76
aF185.88
aF186.0
aF186.12
aF186.24
aF186.36
aF186.48
aF186.6
aF186.72
aF186.84
aF186.96
aF187.08
aF187.2
aF187.32
aF187.44
aF187.56
aF187.68
aF187.8
aF187.92
aF188.04
aF188.16
aF188.28
aF188.4
aF188.52
aF188.64
aF188.76
aF188.88
aF189.0
aF189.12
aF189.24
aF189.36
aF189.48
aF189.6
aF189.72
aF189.84
aF189.96
aF190.08
aF190.2
aF190.32
aF190.44
aF190.56
aF190.68
aF190.8
aF190.92
aF191.04
aF191.16
aF191.28
aF191.4
aF191.52
aF191.64
aF191.76
aF191.88
aF192.0
aF192.12
aF192.24
aF192.36
aF192.48
aF192.6
aF192.72
aF192.84
aF192.96
aF193.08
aF193.2
aF193.32
aF193.44
aF193.56
aF193.68
aF193.8
aF193.92
aF194.04
aF194.16
aF194.28
aF194.4
aF194.52
aF194.64
aF194.76
aF194.88
aF195.0
aF195.12
aF195.24
aF195.36
aF195.48
aF195.6
aF195.72
aF195.84
aF195.96
aF196.08
aF196.2
aF196.32
aF196.44
aF196.56
aF196.68
aF196.8
aF196.92
aF197.04
aF197.16
aF197.28
aF197.4
aF197.52
aF197.64
aF197.76
aF197.88
aF198.0
aF198.12
aF198.24
aF198.36
aF198.48
aF198.6
aF198.72
aF198.84
aF198.96
aF199.08
aF199.2
aF199.32
aF199.44
aF199.56
aF199.68
aF199.8
aF199.92
atp27
tp28
Rp29
aa(lp30
S'loss'
p31
ag0
(g23
g24
(S'SoftmaxWithLoss'
p32
(lp33
F1.61564
aF1.34043
aF0.715016
aF0.419464
aF0.427966
aF0.370678
aF0.178808
aF0.192137
aF0.135885
aF0.266316
aF0.115116
aF0.0808236
aF0.110612
aF0.0788608
aF0.0896181
aF0.109288
aF0.136028
aF0.145995
aF0.0988895
aF0.289713
aF0.0737964
aF0.025464
aF0.0854764
aF0.112335
aF0.0524445
aF0.00188471
aF0.0504372
aF0.104874
aF0.0366055
aF0.0380405
aF0.0240016
aF0.0234393
aF0.01882
aF0.0172355
aF0.0381079
aF0.0704824
aF0.0380663
aF0.0113419
aF0.00473968
aF0.00415498
aF0.0115774
aF0.0425729
aF0.013679
aF0.0230922
aF0.052684
aF0.018691
aF0.012715
aF0.00527136
aF0.00922573
aF0.0137542
aF0.0261758
aF0.00367735
aF0.00209733
aF0.00267527
aF0.00612849
aF0.0040597
aF0.00476907
aF0.072282
aF0.0149005
aF0.0598715
aF0.0162567
aF0.00335703
aF0.00684771
aF0.000832858
aF0.00775167
aF0.0209613
aF0.0110926
aF0.00300023
aF0.00234898
aF0.0794366
aF0.00581206
aF0.0494868
aF0.0367352
aF0.002355
aF0.00871556
aF0.00448085
aF0.0116129
aF0.00242812
aF0.000865562
aF0.00353561
aF0.00572444
aF0.00300537
aF0.0260657
aF0.000519508
aF0.00600937
aF0.000850822
aF0.000459222
aF0.00942246
aF0.0163644
aF0.0087889
aF0.00101378
aF0.000735897
aF0.00112582
aF0.00191615
aF0.00442708
aF0.000575712
aF0.000507606
aF0.094949
aF7.19608e-05
aF0.00027938
aF0.0035194
aF0.000348613
aF0.000774486
aF0.00306218
aF0.000468293
aF0.000843099
aF6.94e-06
aF0.00344122
aF0.0192541
aF0.000379628
aF0.000176379
aF0.000908315
aF0.00116264
aF0.000909045
aF0.0162375
aF0.00811457
aF0.000241538
aF0.0225178
aF0.000468205
aF0.0370995
aF0.0113965
aF0.0207981
aF0.0019358
aF0.000535409
aF0.0152175
aF0.00457814
aF0.00573744
aF0.000251393
aF0.0248273
aF9.93485e-05
aF0.00142706
aF9.50931e-05
aF0.00708792
aF1.11191e-05
aF0.000106054
aF0.0205555
aF0.00271098
aF0.00097108
aF0.0207276
aF0.000163761
aF0.00100839
aF0.000233575
aF0.000436743
aF0.00797617
aF0.00236372
aF0.020964
aF0.00816141
aF0.000341516
aF0.0674652
aF0.000202944
aF0.00537134
aF0.00181107
aF0.00109481
aF0.0015253
aF0.000227547
aF0.000580647
aF7.96646e-05
aF5.26953e-05
aF0.00790761
aF0.000237603
aF0.00696299
aF0.00865579
aF0.00258572
aF2.25354e-05
aF0.000385875
aF0.0112153
aF0.00229388
aF0.000327901
aF0.00123358
aF0.000933672
aF0.00270048
aF0.0116459
aF0.0455664
aF0.00118237
aF0.0173657
aF0.00198306
aF7.80036e-05
aF0.0114853
aF0.00265758
aF0.0611197
aF0.0501248
aF0.00126676
aF0.00185919
aF6.03053e-05
aF6.30945e-05
aF0.0366166
aF0.0370191
aF5.65059e-05
aF0.000112128
aF3.11415e-05
aF0.00129482
aF0.000572706
aF1.78781e-06
aF0.0343186
aF0.0384007
aF0.0194774
aF0.00780822
aF0.00223599
aF0.0184225
aF0.0240367
aF0.0194116
aF0.000303889
aF0.031366
aF0.000668868
aF0.0657742
aF0.0174527
aF0.018571
aF0.000299933
aF0.0315247
aF0.184467
aF0.000404137
aF0.0103153
aF0.0239093
aF0.000130935
aF0.0135946
aF0.0202978
aF0.00025087
aF4.97526e-05
aF0.000247319
aF0.00276476
aF0.000425389
aF0.000100939
aF3.82358e-05
aF0.0442139
aF0.00680203
aF0.000211286
aF0.000810111
aF1.35655e-05
aF0.000477348
aF0.00508117
aF0.000667632
aF0.000393746
aF0.0021723
aF0.000608575
aF0.000136878
aF0.000158255
aF1.459e-05
aF4.8213e-05
aF4.62725e-05
aF1.16026e-05
aF0.000181308
aF7.23999e-05
aF0.00028142
aF3.37512e-05
aF0.0186097
aF6.92053e-06
aF4.7631e-05
aF2.93413e-05
aF0.00186897
aF0.00365533
aF0.0136228
aF9.56755e-05
aF0.000101362
aF1.24521e-06
aF9.51829e-07
aF0.000196736
aF6.4312e-06
aF0.00373966
aF0.000370971
aF0.0111743
aF1.64911e-05
aF0.000292804
aF4.05384e-05
aF6.08852e-05
aF0.0252069
aF0.0189327
aF0.00582074
aF0.000200569
aF1.63913e-07
aF1.52173e-05
aF5.65599e-06
aF0.000932208
aF0.000142348
aF3.53782e-05
aF0.0544472
aF5.30565e-05
aF0.000728688
aF0.000498701
aF4.17122e-05
aF7.83168e-06
aF2.48359e-06
aF0.000540942
aF4.44933e-06
aF0.000195065
aF0.000358948
aF0.0408384
aF0.00892666
aF6.31936e-05
aF2.38176e-05
aF0.0021955
aF3.24835e-05
aF0.000441651
aF1.9307e-06
aF4.22823e-07
aF2.12653e-05
aF1.48081e-07
aF0.00202161
aF2.05449e-05
aF2.9337e-07
aF9.13836e-05
aF5.72484e-06
aF3.64949e-05
aF7.06862e-06
aF2.59622e-05
aF0.0461092
aF0.00173165
aF0.0304841
aF5.06852e-05
aF0.000654284
aF1.41329e-05
aF6.62954e-05
aF2.82165e-05
aF0.000279795
aF0.0125099
aF1.13345e-06
aF1.69693e-06
aF0.0017066
aF7.70183e-05
aF0.000228037
aF4.02812e-06
aF3.32875e-05
aF0.000376211
aF9.13977e-05
aF6.51927e-08
aF0.000921998
aF8.23526e-05
aF0.000226081
aF4.03111e-05
aF0.00601454
aF0.000518746
aF8.08452e-05
aF0.000153778
aF0.000101831
aF0.00101346
aF0.0414271
aF0.00531573
aF0.000523546
aF0.000853433
aF2.7351e-05
aF0.000705522
aF0.00541021
aF0.000241993
aF0.00143498
aF0.00114706
aF0.00235214
aF2.12791e-05
aF0.0044875
aF0.00108848
aF0.00141762
aF0.000332134
aF0.000110479
aF0.000773658
aF0.000184107
aF0.00160175
aF0.0029488
aF3.48129e-05
aF0.00636842
aF1.32616e-05
aF3.53515e-06
aF0.0405672
aF6.03707e-06
aF0.00435994
aF0.00253907
aF3.91463e-06
aF0.000101424
aF0.000286324
aF0.0416288
aF5.36244e-05
aF0.00188498
aF0.000348508
aF0.000890853
aF0.014832
aF0.0163927
aF0.0003887
aF2.09744e-06
aF0.000545795
aF0.00199631
aF0.0105405
aF3.7826e-05
aF3.51164e-05
aF0.000329192
aF0.0248168
aF0.000140747
aF0.000389389
aF2.3928e-05
aF0.000999497
aF0.00456725
aF0.0318074
aF0.10546
aF4.27841e-05
aF0.00248744
aF0.000139815
aF0.0459961
aF0.00493286
aF0.00633604
aF1.81923e-05
aF3.9409e-05
aF0.0222292
aF3.88075e-06
aF3.30093e-05
aF0.0176074
aF6.16253e-05
aF0.063818
aF0.000364371
aF5.00237e-05
aF0.00196982
aF0.000437196
aF0.000195244
aF5.71204e-06
aF0.000334825
aF6.51926e-09
aF0.0127911
aF0.00214819
aF0.000242816
aF0.000381022
aF0.0136391
aF0.00254895
aF5.99032e-06
aF0.0001683
aF3.42372e-05
aF3.239e-06
aF1.79846e-06
aF0.0204623
aF1.23034e-06
aF0.00624758
aF1.99304e-07
aF0.0392854
aF7.63686e-08
aF0.000277237
aF1.26661e-07
aF0.0227455
aF0.000173317
aF0.00127204
aF0.00345244
aF0.000111005
aF0.000216032
aF8.48895e-05
aF0.0167808
aF5.21415e-05
aF8.731e-05
aF0.00307363
aF6.58803e-05
aF0.000162401
aF0.000670664
aF6.92697e-06
aF0.00401684
aF0.00197319
aF0.0455045
aF0.0212509
aF0.00047481
aF0.0107363
aF0.0156687
aF0.0002256
aF0.000661491
aF1.718e-06
aF8.42319e-06
aF0.00979119
aF0.194608
aF0.0310531
aF0.0086783
aF0.108397
aF4.54491e-07
aF0.000210001
aF0.000224451
aF0.00963693
aF0.000854976
aF0.0870312
aF6.43143e-06
aF2.58382e-05
aF0.0236461
aF0.0204825
aF5.98847e-07
aF0.000180161
aF0.117198
aF0.00273245
aF0.0148458
aF0.0286138
aF0.00431849
aF0.000296683
aF2.99886e-05
aF3.8927e-05
aF1.10384e-05
aF6.8546e-07
aF0.0451857
aF0.00877938
aF0.0432743
aF0.0431457
aF0.0022096
aF0.00479539
aF0.00214191
aF0.020484
aF2.86848e-07
aF9.26934e-06
aF0.0602405
aF0.00732909
aF0.00413012
aF0.00031363
aF4.81124e-05
aF0.000378999
aF0.02943
aF8.32742e-06
aF0.0168606
aF2.7738e-05
aF8.2098e-05
aF0.0469467
aF0.0238364
aF0.0486124
aF0.126456
aF8.38026e-06
aF3.78798e-05
aF0.0199227
aF0.261937
aF0.0310837
aF0.108865
aF0.023166
aF0.0879194
aF0.0829198
aF0.0105983
aF0.000196323
aF0.0126307
aF7.33391e-06
aF0.114523
aF0.178175
aF2.05181e-05
aF0.18529
aF0.174044
aF0.0810596
aF0.0679414
aF0.0134115
aF0.00494645
aF0.0823819
aF0.00124336
aF0.067492
aF0.0152406
aF0.460971
aF0.101151
aF0.222289
aF0.107425
aF0.151895
aF0.130299
aF0.0555678
aF0.0820137
aF0.182684
aF0.0118235
aF0.112828
aF0.141163
aF0.0629921
aF0.016278
aF0.031301
aF0.139266
aF0.165311
aF0.0635059
aF0.219178
aF0.0940705
aF0.0730096
aF0.0353175
aF0.0043457
aF0.022927
aF0.0636173
aF0.0460999
aF0.0647062
aF0.00241702
aF0.00143453
aF0.0150138
aF0.00309751
aF0.000115388
aF9.78074e-05
aF0.0002318
aF0.067625
aF0.0188768
aF0.0321319
aF0.0544303
aF0.000220425
aF0.000948066
aF0.00120466
aF0.0650216
aF6.70156e-05
aF0.000409596
aF0.00995051
aF3.3072e-05
aF0.000105079
aF0.034695
aF0.00612402
aF0.00111215
aF0.00505072
aF0.0416666
aF9.7121e-05
aF0.00939162
aF0.00647445
aF0.0101186
aF0.00526013
aF0.000173673
aF0.0007208
aF0.00281955
aF0.0217803
aF0.00493682
aF0.00237396
aF1.30798e-05
aF4.75182e-05
aF0.0051601
aF0.00668224
aF0.00102255
aF9.86334e-05
aF7.98711e-05
aF0.0039922
aF0.000144333
aF0.00270602
aF0.0026542
aF0.00641036
aF0.0131135
aF0.00640265
aF2.16992e-05
aF0.00126461
aF0.00450452
aF0.000702963
aF0.00320709
aF3.1915e-05
aF0.00112027
aF0.00627268
aF0.0284453
aF0.000322643
aF0.000143888
aF0.000141515
aF2.6233e-06
aF0.000512258
aF5.66205e-05
aF8.8594e-06
aF0.00842594
aF0.00223639
aF0.00248073
aF0.0010079
aF0.0186848
aF0.00361505
aF8.20273e-06
aF0.00198814
aF0.00216468
aF0.00215088
aF0.00296534
aF0.000163124
aF4.09844e-05
aF6.41046e-05
aF0.000255217
aF1.48549e-06
aF0.00384424
aF0.000185943
aF0.000104886
aF0.000149902
aF0.0202649
aF2.55781e-05
aF4.92036e-05
aF0.0196177
aF2.50224e-06
aF0.0055587
aF9.91024e-05
aF0.00956277
aF0.00115091
aF1.13158e-06
aF0.0222375
aF0.000577611
aF0.000131525
aF2.42785e-05
aF6.3695e-05
aF0.000600334
aF8.20101e-05
aF0.000164611
aF0.00257525
aF0.000532428
aF1.47714e-06
aF0.000324611
aF0.000520773
aF9.31125e-05
aF2.23062e-06
aF3.46077e-05
aF0.00426747
aF0.000424152
aF1.53302e-06
aF1.22004e-07
aF1.34022e-06
aF0.00104623
aF0.00268941
aF0.000171886
aF0.000579441
aF0.000179198
aF0.0037766
aF4.88952e-07
aF0.00548236
aF0.0096386
aF4.55278e-05
aF0.000111557
aF0.000174061
aF1.58531e-05
aF5.54349e-05
aF5.57498e-05
aF6.91608e-05
aF6.68789e-05
aF0.000373934
aF5.12227e-05
aF1.39642e-05
aF0.000273875
aF3.82831e-05
aF0.00483356
aF3.09353e-05
aF4.82494e-05
aF7.88812e-06
aF5.88225e-05
aF4.16304e-07
aF0.00167214
aF6.98783e-05
aF0.000436603
aF9.46682e-05
aF6.6124e-08
aF0.00284625
aF0.000393662
aF9.25244e-05
aF7.8221e-06
aF9.22911e-05
aF4.35368e-05
aF1.81905e-05
aF0.064509
aF7.8699e-07
aF3.7647e-06
aF8.41784e-05
aF3.29264e-06
aF0.000661864
aF6.5989e-06
aF1.27203e-05
aF1.86288e-05
aF5.1005e-06
aF7.53471e-07
aF1.00583e-07
aF0.000198532
aF7.73382e-06
aF0.00116277
aF2.71598e-05
aF3.61565e-05
aF4.40993e-05
aF1.85143e-05
aF0.000978583
aF4.76138e-05
aF4.81376e-06
aF1.37471e-06
aF3.72337e-06
aF1.13253e-06
aF6.09877e-05
aF1.18322e-05
aF1.09897e-07
aF0.0102181
aF1.59967e-06
aF0.000153624
aF7.60036e-05
aF0.000130543
aF0.00401969
aF1.98815e-05
aF0.000105552
aF0.000125443
aF0.00147483
aF2.14831e-06
aF8.47507e-08
aF0.0430134
aF1.90402e-05
aF0.0140858
aF0.00186122
aF9.54835e-05
aF0.0149679
aF0.00356967
aF0.000159715
aF1.29542e-05
aF0.00011018
aF0.00199168
aF0.00159021
aF3.63216e-08
aF3.58076e-05
aF2.42144e-08
aF0.00574414
aF5.12228e-08
aF7.6463e-07
aF1.7526e-05
aF0.000198209
aF5.20349e-06
aF5.30855e-08
aF0.000598193
aF8.91916e-06
aF0.000642561
aF5.28069e-07
aF0.000314756
aF1.78169e-06
aF1.53087e-05
aF0.00184812
aF1.76681e-06
aF4.04771e-05
aF4.36659e-05
aF2.8713e-05
aF6.45992e-05
aF0.000178637
aF1.89388e-05
aF0.0015201
aF1.76951e-08
aF2.62702e-06
aF1.45854e-06
aF5.93685e-06
aF6.82223e-06
aF0.0041912
aF2.39352e-07
aF0.00112477
aF2.08308e-06
aF0.0011586
aF3.85381e-05
aF5.6491e-06
aF3.24799e-05
aF1.79747e-07
aF2.56157e-05
aF1.25307e-05
aF0.000316552
aF3.23144e-06
aF9.36013e-07
aF4.11648e-07
aF1.26353e-05
aF6.87557e-06
aF5.06058e-06
aF2.1785e-06
aF2.5798e-07
aF0.000707842
aF0.000315044
aF0.000190449
aF0.000590988
aF9.68577e-08
aF2.74357e-05
aF6.50504e-06
aF4.24051e-05
aF0.00198052
aF6.5428e-06
aF1.20051e-06
aF5.25274e-07
aF0.000183038
aF0.0275773
aF2.67119e-06
aF3.74203e-05
aF0.000502948
aF5.97771e-06
aF2.33344e-05
aF1.89975e-05
aF9.79672e-05
aF1.86301e-05
aF2.23519e-07
aF0.0005484
aF6.30009e-05
aF9.90046e-07
aF0.00045511
aF8.20533e-07
aF2.65312e-06
aF0.00196148
aF5.87403e-06
aF0.00143211
aF0.000125519
aF5.33828e-05
aF0.00112065
aF6.23992e-07
aF0.000153935
aF5.14371e-05
aF0.00712658
aF2.95399e-06
aF2.80428e-05
aF1.08502e-06
aF0.000337843
aF1.87603e-05
aF1.39334e-06
aF0.000695064
aF0.000102376
aF7.07806e-08
aF0.000906697
aF2.88465e-05
aF0.020838
aF2.26151e-05
aF3.39004e-07
aF4.2562e-07
aF1.13069e-05
aF2.29176e-06
aF5.02915e-08
aF2.06887e-05
aF9.41067e-05
aF3.67144e-06
aF3.53383e-05
aF7.20311e-05
aF1.83355e-05
aF0.000299847
aF2.88942e-06
aF6.90304e-06
aF5.23762e-05
aF0.000935061
aF0.00134958
aF6.14697e-07
aF3.87435e-07
aF0.000336945
aF1.55444e-06
aF4.89667e-05
aF1.2266e-06
aF0.000473816
aF0.00109891
aF4.59732e-05
aF2.10072e-05
aF9.55506e-05
aF5.75237e-06
aF2.68106e-06
aF0.0114074
aF4.08536e-05
aF3.47083e-05
aF1.79345e-06
aF5.46974e-05
aF6.46362e-07
aF1.58943e-06
aF0.000282592
aF2.31219e-06
aF1.75935e-06
aF0.000429318
aF3.64175e-06
aF1.42458e-06
aF0.000115537
aF5.31596e-06
aF1.67087e-06
aF3.44265e-06
aF1.91549e-06
aF1.77884e-07
aF2.65683e-05
aF1.62647e-05
aF5.86351e-05
aF0.000171465
aF4.47884e-05
aF8.87039e-06
aF1.39333e-06
aF0.000326066
aF0.000136383
aF7.72999e-08
aF3.33933e-05
aF8.94072e-08
aF1.25828e-06
aF5.31056e-06
aF0.000533005
aF3.15745e-05
aF0.00119591
aF7.46391e-06
aF8.61514e-07
aF2.50603e-05
aF4.39614e-05
aF3.05477e-07
aF1.22913e-05
aF0.00126362
aF2.36892e-05
aF8.1408e-06
aF0.00178691
aF2.62408e-05
aF6.21059e-06
aF3.54687e-05
aF4.26761e-06
aF4.13618e-05
aF7.59054e-07
aF4.56349e-08
aF2.91853e-05
aF0.00014631
aF1.43433e-06
aF1.52007e-05
aF9.19265e-07
aF4.61996e-06
aF0.000304378
aF2.33764e-07
aF0.000714725
aF8.94073e-08
aF0.000206789
aF2.92437e-07
aF1.16607e-06
aF1.94647e-07
aF0.000182756
aF6.13104e-05
aF8.66132e-08
aF6.55956e-06
aF4.65662e-08
aF1.11952e-06
aF2.3726e-05
aF7.98659e-05
aF9.95647e-07
aF3.95095e-06
aF4.16307e-07
aF9.9652e-08
aF6.33922e-06
aF6.13464e-05
aF0.000477894
aF0.00015644
aF7.45058e-09
aF1.84403e-07
aF2.66312e-05
aF1.83188e-05
aF3.3856e-06
aF2.32334e-06
aF7.13249e-06
aF0.00026271
aF0.00151385
aF1.18001e-06
aF0.000111626
aF9.14585e-07
aF2.70433e-06
aF6.42615e-08
aF2.32831e-08
aF9.73325e-06
aF7.08318e-05
aF4.38659e-07
aF1.63731e-05
aF3.97867e-06
aF0.000226697
aF0.000343585
aF4.67963e-05
aF1.2611e-06
aF4.03268e-06
aF4.8336e-07
aF9.03388e-08
aF6.66723e-05
aF1.74158e-07
aF6.18419e-07
aF5.10372e-07
aF7.82313e-08
aF6.97589e-07
aF2.5733e-05
aF3.35276e-08
aF8.43803e-07
aF4.02342e-07
aF1.30396e-06
aF6.63234e-06
aF2.63699e-06
aF1.79473e-06
aF6.15628e-07
aF0.00119955
aF3.17661e-06
aF4.86909e-05
aF6.83601e-07
aF9.98411e-07
aF3.03787e-05
aF0.000704752
aF3.2324e-06
aF1.546e-07
aF0.000536651
aF0.00305838
aF1.21356e-06
aF0.000161921
aF0.00129753
aF2.56779e-05
aF0.00182131
aF0.00270956
aF1.28523e-07
aF7.63885e-05
aF3.41596e-05
aF1.35042e-07
aF2.29636e-06
aF9.22037e-07
aF5.76667e-05
aF0.000832897
aF5.24481e-06
aF4.03269e-07
aF9.22967e-07
aF3.45937e-05
aF1.20703e-06
aF8.26335e-05
aF4.19303e-06
aF1.88128e-07
aF1.46676e-05
aF0.0016549
aF9.47209e-07
aF2.52477e-05
aF0.000101576
aF3.88965e-06
aF0.000162264
aF2.1213e-06
aF0.00020644
aF6.14674e-08
aF1.58502e-05
aF3.18011e-05
aF0.00985051
aF0.000633279
aF0.00184765
aF5.19583e-05
aF1.37837e-07
aF3.12926e-07
aF1.07103e-07
aF2.61043e-05
aF1.61088e-06
aF2.29172e-06
aF1.89163e-06
aF3.81843e-08
aF8.06073e-05
aF9.9096e-07
aF0.000142003
aF1.76951e-08
aF2.32831e-08
aF2.66025e-05
aF0.000494094
aF2.97427e-06
aF3.39004e-07
aF1.11759e-07
aF1.29115e-05
aF2.86849e-07
aF1.59866e-05
aF3.63216e-08
aF0.000199087
aF1.78694e-06
aF0.00014202
aF5.02916e-08
aF4.24667e-05
aF3.28526e-06
aF3.33075e-05
aF0.000118266
aF7.40436e-07
aF4.34957e-05
aF6.12818e-07
aF6.37966e-07
aF9.68579e-08
aF1.03572e-05
aF0.000100489
aF9.96519e-08
aF0.00023496
aF1.18279e-07
aF5.15967e-07
aF1.42494e-07
aF9.0268e-06
aF0.000942768
aF4.22929e-05
aF6.03512e-07
aF2.58012e-06
aF6.14461e-06
aF2.47279e-06
aF2.14204e-08
aF9.37886e-07
aF8.84857e-06
aF1.76961e-06
aF4.19102e-07
aF1.86265e-09
aF0.000367547
aF9.68625e-07
aF0.000502561
aF1.34238e-05
aF4.97565e-06
aF2.56913e-05
aF4.81879e-06
aF3.16355e-05
aF0.000314515
aF2.40283e-07
aF3.72529e-09
aF5.57436e-05
aF5.60573e-05
aF8.33995e-06
aF8.28879e-08
aF0.00703886
aF1.0891e-05
aF4.35863e-07
aF5.94903e-06
aF6.9596e-06
aF1.91399e-06
aF2.10448e-05
aF7.05032e-07
aF1.50875e-07
aF3.06724e-06
aF1.15485e-07
aF0.000373467
aF8.20521e-07
aF0.000597868
aF1.86265e-08
aF3.62864e-06
aF4.66262e-06
aF5.12251e-06
aF5.78085e-06
aF5.20559e-05
aF3.01754e-07
aF2.54945e-06
aF5.33851e-06
aF2.79397e-08
aF8.58712e-07
aF2.10449e-05
aF3.17984e-05
aF1.2858e-05
aF0.000843974
aF1.02375e-05
aF5.57387e-06
aF0.000465777
aF5.55671e-05
aF2.28177e-07
aF5.60663e-07
aF5.17351e-06
aF1.21072e-08
aF3.84643e-07
aF4.52636e-07
aF3.08271e-07
aF1.26283e-05
aF1.7888e-06
aF0.0120417
aF0.000246627
aF0.000716242
aF6.58901e-06
aF8.84528e-06
aF4.51575e-06
aF1.26141e-05
aF3.08536e-05
aF3.44517e-06
aF0.000158665
aF2.61185e-06
aF1.16264e-05
aF7.54373e-08
aF0.000115236
aF1.44087e-06
aF3.10052e-06
aF6.24002e-07
aF1.35519e-05
aF4.85419e-05
aF0.000235038
aF1.818e-06
aF1.63653e-05
aF6.6124e-08
aF3.25963e-08
aF1.43352e-05
aF1.57395e-07
aF0.00441854
aF3.44595e-07
aF0.000305736
aF4.02361e-06
aF4.61849e-05
aF0.028348
aF8.37405e-06
aF4.02804e-06
aF0.000155661
aF8.54037e-07
aF0.000998784
aF9.2858e-07
aF3.13997e-05
aF1.56626e-05
aF2.24667e-05
aF2.99996e-05
aF3.01753e-07
aF6.3274e-05
aF2.30038e-07
aF2.06208e-06
aF3.0106e-06
aF1.7499e-05
aF9.18189e-06
aF9.62904e-06
aF2.82193e-07
aF0.0182126
aF2.94662e-05
aF5.8746e-06
aF6.51926e-09
aF7.63686e-08
aF0.000271561
aF3.22164e-06
aF2.53324e-07
aF4.49515e-05
aF4.1782e-05
aF0.00226212
aF8.09345e-07
aF0.000221352
aF2.69581e-05
aF2.98024e-08
aF0.00445305
aF2.12784e-06
aF2.3831e-06
aF3.02456e-06
aF9.97313e-06
aF3.05339e-06
aF5.43416e-05
aF5.99907e-06
aF3.42733e-07
aF8.3819e-09
aF1.55532e-07
aF1.70399e-05
aF2.94819e-06
aF2.27563e-05
aF8.71098e-06
aF1.97979e-05
aF6.82824e-06
aF3.41358e-06
aF1.53669e-07
aF1.0152e-06
aF1.85254e-05
aF0.00105197
aF1.06171e-07
aF3.07337e-08
aF0.000194811
aF9.31323e-09
aF0.000179416
aF3.13858e-07
aF8.43422e-05
aF2.83124e-07
aF1.92786e-07
aF2.31701e-05
aF3.87048e-06
aF4.38323e-05
aF2.42144e-08
aF1.15485e-07
aF0.000786386
aF7.84531e-05
aF2.79397e-09
aF2.80333e-07
aF1.58326e-07
aF0.000121628
aF4.37722e-08
aF1.59787e-05
aF3.36512e-06
aF3.05929e-05
aF0.000257427
aF4.85107e-06
aF0.000543613
aF0.000138609
aF2.08685e-06
aF4.65666e-07
aF4.6846e-07
aF1.55532e-07
aF0.00020363
aF2.81262e-07
aF7.11351e-06
aF2.20801e-06
aF1.22025e-05
aF0.000737817
aF0.00131018
aF3.7085e-06
aF2.70085e-07
aF0.00032838
aF3.06063e-05
aF0.00018686
aF2.49031e-05
aF1.3967e-05
aF2.20725e-07
aF7.86764e-05
aF3.33416e-07
aF4.19707e-06
aF9.6271e-06
aF3.04677e-05
aF4.50773e-07
aF7.21026e-06
aF0.000231089
aF0.000995673
aF2.50171e-06
aF4.26897e-05
aF0.000124777
aF2.15136e-07
aF1.79624e-06
aF2.75347e-06
aF0.00186125
aF0.00210963
aF3.84758e-06
aF0.00174991
aF0.000358125
aF0.000114822
aF1.6616e-06
aF2.5825e-05
aF9.82603e-07
aF1.26093e-05
aF0.000103225
aF2.55503e-06
aF5.82491e-05
aF1.39699e-07
aF0.000208408
aF1.94648e-07
aF1.14468e-06
aF7.77693e-07
aF0.00184944
aF1.88128e-07
aF1.15957e-06
aF8.16809e-07
aF0.000214362
aF1.28523e-07
aF1.82228e-06
aF1.72295e-07
aF6.61242e-08
aF0.000111533
aF1.53544e-06
aF4.56349e-08
aF0.00180395
aF2.97893e-06
aF1.70721e-06
aF0.00184529
aF0.00121082
aF5.56009e-07
aF9.20818e-05
aF2.91082e-06
aF2.92304e-05
aF0.00152226
aF0.0375966
aF1.57867e-06
aF2.85495e-06
aF2.47736e-07
aF0.000279832
aF2.13275e-07
aF3.70007e-06
aF0.000332544
aF5.88608e-07
aF2.38077e-05
aF1.50793e-06
aF4.21894e-07
aF0.00325853
aF1.35973e-07
aF4.6831e-05
aF1.6599e-05
aF1.6472e-06
aF1.7509e-07
aF0.000482402
aF5.97675e-05
aF1.03646e-05
aF3.94885e-07
aF1.34677e-06
aF3.0734e-07
aF1.09897e-07
aF6.85479e-07
aF0.000323387
aF7.4506e-08
aF3.43804e-06
aF4.92676e-07
aF6.61242e-08
aF4.3134e-05
aF1.41413e-05
aF4.6567e-07
aF4.95959e-05
aF7.41365e-07
aF3.04549e-05
aF2.56013e-05
aF0.000577577
aF3.05811e-06
aF1.8758e-05
aF4.57286e-07
aF6.72247e-06
aF2.30852e-06
aF3.21632e-06
aF3.70423e-05
aF2.27125e-06
aF3.84316e-06
aF2.02449e-06
aF3.10022e-05
aF2.33395e-05
aF0.00400541
aF0.00018404
aF9.68579e-08
aF9.16254e-06
aF2.30731e-05
aF0.00268182
aF2.05275e-05
aF3.83761e-06
aF3.07487e-06
aF2.50143e-05
aF2.98024e-08
aF3.1903e-05
aF1.81268e-05
aF9.84892e-05
aF2.02445e-05
aF0.0217596
aF3.87951e-06
aF4.3307e-07
aF1.57175e-05
aF7.20092e-05
aF7.64048e-05
aF0.00144033
aF5.69985e-07
aF1.00648e-05
aF5.44221e-05
aF9.9751e-07
aF2.12137e-06
aF3.14793e-07
aF0.000438798
aF1.63914e-07
aF4.1445e-07
aF2.32831e-08
aF6.6124e-08
aF0.00102671
aF0.00015369
aF3.51708e-06
aF2.69659e-06
aF0.000824786
aF5.24421e-05
aF1.66905e-06
aF0.000123658
aF7.53386e-06
aF4.50661e-05
aF3.83686e-05
aF4.6074e-05
aF3.07337e-08
aF2.401e-05
aF9.54366e-06
aF1.12042e-06
aF0.000499348
aF0.000240197
aF6.33301e-08
aF8.26929e-05
aF1.06131e-05
aF0.0
aF2.8778e-07
aF1.21732e-06
aF0.000884164
aF5.49587e-05
aF0.00162953
aF0.000152541
aF1.82541e-07
aF1.09322e-05
aF0.000127915
aF8.01386e-05
aF6.90349e-06
aF4.31214e-07
aF0.000102341
aF5.12323e-06
aF1.4092e-06
aF0.000129561
aF2.26601e-06
aF0.0036881
aF4.68465e-07
aF3.32372e-05
aF5.18517e-05
aF6.68702e-07
aF1.49012e-07
aF6.61241e-08
aF0.000249038
aF3.91156e-08
aF5.20076e-06
aF1.27592e-07
aF1.19631e-05
aF5.45773e-07
aF3.4646e-07
aF1.92099e-06
aF2.06866e-05
aF5.67213e-05
aF3.72529e-09
aF2.79397e-08
aF1.8372e-06
aF3.93956e-07
aF1.86265e-09
aF1.01053e-06
aF2.30982e-05
aF9.12698e-08
aF1.09158e-06
aF2.4123e-05
aF3.01753e-07
aF1.03901e-05
aF1.14553e-07
aF0.00013005
aF2.32832e-07
aF5.49482e-08
aF0.000110632
aF6.46564e-06
aF1.53669e-07
aF5.85862e-06
aF0.000167051
aF2.74995e-05
aF8.66133e-08
aF3.6323e-06
aF0.000113375
aF4.47035e-08
aF4.3144e-05
aF2.32831e-08
aF1.99467e-06
aF9.05189e-06
aF8.96911e-05
aF0.00016265
aF6.72138e-06
aF0.000294209
aF1.16161e-05
aF5.29003e-07
aF9.383e-06
aF1.49012e-08
aF1.86265e-08
aF3.81851e-07
aF8.27715e-06
aF4.89357e-06
aF3.46691e-05
aF0.000121953
aF3.77238e-06
aF1.18004e-06
aF1.39698e-08
aF2.09518e-06
aF8.73617e-07
aF4.75493e-05
aF0.000176246
aF8.22398e-07
aF9.96443e-06
aF1.39385e-06
aF2.72963e-05
aF4.91194e-06
aF2.59246e-05
aF3.67877e-07
aF7.26434e-08
aF3.34477e-05
aF0.000119367
aF1.06891e-05
aF1.80687e-06
aF5.93268e-07
aF0.000684143
aF4.98234e-06
aF1.06551e-05
aF3.87467e-05
aF3.32235e-05
aF4.19096e-08
aF3.14159e-05
aF0.000264366
aF1.16294e-05
aF1.8214e-06
aF6.70554e-08
aF4.91128e-05
aF5.69944e-06
aF1.50875e-07
aF6.26459e-05
aF1.81894e-06
aF1.11759e-08
aF0.000667246
aF5.68108e-08
aF2.0303e-07
aF0.000322701
aF7.6931e-07
aF2.60771e-08
aF1.86462e-06
aF0.000863641
aF2.94303e-07
aF0.00508652
aF1.92786e-07
aF4.70961e-05
aF0.00034253
aF1.6705e-06
aF3.15399e-06
aF7.84048e-06
aF1.309e-05
aF1.44227e-06
aF5.41284e-06
aF2.67294e-07
aF1.28568e-05
aF3.87359e-06
aF1.78982e-05
aF9.95643e-07
aF3.78122e-07
aF0.000112248
aF1.73413e-05
aF3.48159e-06
aF0.00224121
aF2.15138e-07
aF2.72881e-07
aF1.23869e-06
aF8.33556e-07
aF2.42144e-08
aF1.46411e-06
aF2.8871e-08
aF0.000121265
aF0.000161961
aF8.47652e-05
aF5.93102e-06
aF4.93437e-06
aF0.000318997
aF3.89016e-06
aF0.000136407
aF1.49012e-08
aF1.58325e-08
aF9.40684e-07
aF0.00208696
aF9.33e-06
aF1.68571e-07
aF3.91156e-08
aF3.84355e-05
aF0.00107663
aF2.25454e-06
aF3.97889e-06
aF0.000121666
aF4.74975e-08
aF7.54374e-08
aF2.03898e-05
aF1.01331e-06
aF1.71929e-05
aF3.14792e-07
aF1.78408e-05
aF2.31136e-06
aF0.00038242
aF0.00064873
aF0.0403768
atp34
tp35
Rp36
aa(lp37
S'learning_rate'
p38
ag0
(g23
g24
(S'LearningRate'
p39
(lp40
F0.01
aF0.01
aF0.01
aF0.01
aF0.01
aF0.01
aF0.01
aF0.01
aF0.01
aF0.01
aF0.01
aF0.01
aF0.01
aF0.01
aF0.01
aF0.01
aF0.01
aF0.01
aF0.01
aF0.01
aF0.01
aF0.01
aF0.01
aF0.01
aF0.01
aF0.01
aF0.01
aF0.01
aF0.01
aF0.01
aF0.01
aF0.01
aF0.01
aF0.01
aF0.01
aF0.01
aF0.01
aF0.01
aF0.01
aF0.01
aF0.01
aF0.01
aF0.01
aF0.01
aF0.01
aF0.01
aF0.01
aF0.01
aF0.01
aF0.01
aF0.01
aF0.01
aF0.01
aF0.01
aF0.01
aF0.01
aF0.01
aF0.01
aF0.01
aF0.01
aF0.01
aF0.01
aF0.01
aF0.01
aF0.01
aF0.01
aF0.01
aF0.01
aF0.01
aF0.01
aF0.01
aF0.01
aF0.01
aF0.01
aF0.01
aF0.01
aF0.01
aF0.01
aF0.01
aF0.01
aF0.01
aF0.01
aF0.01
aF0.01
aF0.01
aF0.01
aF0.01
aF0.01
aF0.01
aF0.01
aF0.01
aF0.01
aF0.01
aF0.01
aF0.01
aF0.01
aF0.01
aF0.01
aF0.01
aF0.01
aF0.01
aF0.01
aF0.01
aF0.01
aF0.01
aF0.01
aF0.01
aF0.01
aF0.01
aF0.01
aF0.01
aF0.01
aF0.01
aF0.01
aF0.01
aF0.01
aF0.01
aF0.01
aF0.01
aF0.01
aF0.01
aF0.01
aF0.01
aF0.01
aF0.01
aF0.01
aF0.01
aF0.01
aF0.01
aF0.01
aF0.01
aF0.01
aF0.01
aF0.01
aF0.01
aF0.01
aF0.01
aF0.01
aF0.01
aF0.01
aF0.01
aF0.01
aF0.01
aF0.01
aF0.01
aF0.01
aF0.01
aF0.01
aF0.01
aF0.01
aF0.01
aF0.01
aF0.01
aF0.01
aF0.01
aF0.01
aF0.01
aF0.01
aF0.01
aF0.01
aF0.01
aF0.01
aF0.01
aF0.01
aF0.01
aF0.01
aF0.01
aF0.01
aF0.01
aF0.01
aF0.01
aF0.01
aF0.01
aF0.01
aF0.01
aF0.01
aF0.01
aF0.01
aF0.01
aF0.01
aF0.01
aF0.01
aF0.01
aF0.01
aF0.01
aF0.01
aF0.01
aF0.01
aF0.01
aF0.01
aF0.01
aF0.01
aF0.01
aF0.01
aF0.01
aF0.01
aF0.01
aF0.01
aF0.01
aF0.01
aF0.01
aF0.01
aF0.01
aF0.01
aF0.01
aF0.01
aF0.01
aF0.01
aF0.01
aF0.01
aF0.01
aF0.01
aF0.01
aF0.01
aF0.01
aF0.01
aF0.01
aF0.01
aF0.01
aF0.01
aF0.01
aF0.01
aF0.01
aF0.01
aF0.01
aF0.01
aF0.01
aF0.01
aF0.01
aF0.01
aF0.01
aF0.01
aF0.01
aF0.01
aF0.01
aF0.01
aF0.01
aF0.01
aF0.01
aF0.01
aF0.01
aF0.01
aF0.01
aF0.01
aF0.01
aF0.01
aF0.01
aF0.01
aF0.01
aF0.01
aF0.01
aF0.01
aF0.01
aF0.01
aF0.01
aF0.01
aF0.01
aF0.01
aF0.01
aF0.01
aF0.01
aF0.01
aF0.01
aF0.01
aF0.01
aF0.01
aF0.01
aF0.01
aF0.01
aF0.01
aF0.01
aF0.01
aF0.01
aF0.01
aF0.01
aF0.01
aF0.01
aF0.01
aF0.01
aF0.01
aF0.01
aF0.01
aF0.01
aF0.01
aF0.01
aF0.01
aF0.01
aF0.01
aF0.01
aF0.01
aF0.01
aF0.01
aF0.01
aF0.01
aF0.01
aF0.01
aF0.01
aF0.01
aF0.01
aF0.01
aF0.01
aF0.01
aF0.01
aF0.01
aF0.01
aF0.01
aF0.01
aF0.01
aF0.01
aF0.01
aF0.01
aF0.01
aF0.01
aF0.01
aF0.01
aF0.01
aF0.01
aF0.01
aF0.01
aF0.01
aF0.01
aF0.01
aF0.01
aF0.01
aF0.01
aF0.01
aF0.01
aF0.01
aF0.01
aF0.01
aF0.01
aF0.01
aF0.01
aF0.01
aF0.01
aF0.01
aF0.01
aF0.01
aF0.01
aF0.01
aF0.01
aF0.01
aF0.01
aF0.01
aF0.01
aF0.01
aF0.01
aF0.01
aF0.01
aF0.01
aF0.01
aF0.01
aF0.01
aF0.01
aF0.01
aF0.01
aF0.01
aF0.01
aF0.01
aF0.01
aF0.01
aF0.01
aF0.01
aF0.01
aF0.01
aF0.01
aF0.01
aF0.01
aF0.01
aF0.01
aF0.01
aF0.01
aF0.01
aF0.01
aF0.01
aF0.01
aF0.01
aF0.01
aF0.01
aF0.01
aF0.01
aF0.01
aF0.01
aF0.01
aF0.01
aF0.01
aF0.01
aF0.01
aF0.01
aF0.01
aF0.01
aF0.01
aF0.01
aF0.01
aF0.01
aF0.01
aF0.01
aF0.01
aF0.01
aF0.01
aF0.01
aF0.01
aF0.01
aF0.01
aF0.01
aF0.01
aF0.01
aF0.01
aF0.01
aF0.01
aF0.01
aF0.01
aF0.01
aF0.01
aF0.01
aF0.01
aF0.01
aF0.01
aF0.01
aF0.01
aF0.01
aF0.01
aF0.01
aF0.01
aF0.01
aF0.01
aF0.01
aF0.01
aF0.01
aF0.01
aF0.01
aF0.01
aF0.01
aF0.01
aF0.01
aF0.01
aF0.01
aF0.01
aF0.01
aF0.01
aF0.01
aF0.01
aF0.01
aF0.01
aF0.01
aF0.01
aF0.01
aF0.01
aF0.01
aF0.01
aF0.01
aF0.01
aF0.01
aF0.01
aF0.01
aF0.01
aF0.01
aF0.01
aF0.01
aF0.01
aF0.01
aF0.01
aF0.01
aF0.01
aF0.01
aF0.01
aF0.01
aF0.01
aF0.01
aF0.01
aF0.01
aF0.01
aF0.01
aF0.01
aF0.01
aF0.01
aF0.01
aF0.01
aF0.01
aF0.01
aF0.01
aF0.01
aF0.01
aF0.01
aF0.01
aF0.01
aF0.01
aF0.01
aF0.01
aF0.01
aF0.01
aF0.01
aF0.01
aF0.01
aF0.01
aF0.01
aF0.01
aF0.01
aF0.01
aF0.01
aF0.01
aF0.01
aF0.01
aF0.01
aF0.01
aF0.01
aF0.01
aF0.01
aF0.01
aF0.01
aF0.01
aF0.01
aF0.01
aF0.01
aF0.01
aF0.01
aF0.01
aF0.01
aF0.01
aF0.01
aF0.01
aF0.01
aF0.01
aF0.01
aF0.01
aF0.01
aF0.01
aF0.01
aF0.01
aF0.01
aF0.01
aF0.01
aF0.01
aF0.01
aF0.01
aF0.01
aF0.01
aF0.01
aF0.01
aF0.01
aF0.01
aF0.01
aF0.01
aF0.01
aF0.01
aF0.01
aF0.01
aF0.01
aF0.01
aF0.01
aF0.001
aF0.001
aF0.001
aF0.001
aF0.001
aF0.001
aF0.001
aF0.001
aF0.001
aF0.001
aF0.001
aF0.001
aF0.001
aF0.001
aF0.001
aF0.001
aF0.001
aF0.001
aF0.001
aF0.001
aF0.001
aF0.001
aF0.001
aF0.001
aF0.001
aF0.001
aF0.001
aF0.001
aF0.001
aF0.001
aF0.001
aF0.001
aF0.001
aF0.001
aF0.001
aF0.001
aF0.001
aF0.001
aF0.001
aF0.001
aF0.001
aF0.001
aF0.001
aF0.001
aF0.001
aF0.001
aF0.001
aF0.001
aF0.001
aF0.001
aF0.001
aF0.001
aF0.001
aF0.001
aF0.001
aF0.001
aF0.001
aF0.001
aF0.001
aF0.001
aF0.001
aF0.001
aF0.001
aF0.001
aF0.001
aF0.001
aF0.001
aF0.001
aF0.001
aF0.001
aF0.001
aF0.001
aF0.001
aF0.001
aF0.001
aF0.001
aF0.001
aF0.001
aF0.001
aF0.001
aF0.001
aF0.001
aF0.001
aF0.001
aF0.001
aF0.001
aF0.001
aF0.001
aF0.001
aF0.001
aF0.001
aF0.001
aF0.001
aF0.001
aF0.001
aF0.001
aF0.001
aF0.001
aF0.001
aF0.001
aF0.001
aF0.001
aF0.001
aF0.001
aF0.001
aF0.001
aF0.001
aF0.001
aF0.001
aF0.001
aF0.001
aF0.001
aF0.001
aF0.001
aF0.001
aF0.001
aF0.001
aF0.001
aF0.001
aF0.001
aF0.001
aF0.001
aF0.001
aF0.001
aF0.001
aF0.001
aF0.001
aF0.001
aF0.001
aF0.001
aF0.001
aF0.001
aF0.001
aF0.001
aF0.001
aF0.001
aF0.001
aF0.001
aF0.001
aF0.001
aF0.001
aF0.001
aF0.001
aF0.001
aF0.001
aF0.001
aF0.001
aF0.001
aF0.001
aF0.001
aF0.001
aF0.001
aF0.001
aF0.001
aF0.001
aF0.001
aF0.001
aF0.001
aF0.001
aF0.001
aF0.001
aF0.001
aF0.001
aF0.001
aF0.001
aF0.001
aF0.001
aF0.001
aF0.001
aF0.001
aF0.001
aF0.001
aF0.001
aF0.001
aF0.001
aF0.001
aF0.001
aF0.001
aF0.001
aF0.001
aF0.001
aF0.001
aF0.001
aF0.001
aF0.001
aF0.001
aF0.001
aF0.001
aF0.001
aF0.001
aF0.001
aF0.001
aF0.001
aF0.001
aF0.001
aF0.001
aF0.001
aF0.001
aF0.001
aF0.001
aF0.001
aF0.001
aF0.001
aF0.001
aF0.001
aF0.001
aF0.001
aF0.001
aF0.001
aF0.001
aF0.001
aF0.001
aF0.001
aF0.001
aF0.001
aF0.001
aF0.001
aF0.001
aF0.001
aF0.001
aF0.001
aF0.001
aF0.001
aF0.001
aF0.001
aF0.001
aF0.001
aF0.001
aF0.001
aF0.001
aF0.001
aF0.001
aF0.001
aF0.001
aF0.001
aF0.001
aF0.001
aF0.001
aF0.001
aF0.001
aF0.001
aF0.001
aF0.001
aF0.001
aF0.001
aF0.001
aF0.001
aF0.001
aF0.001
aF0.001
aF0.001
aF0.001
aF0.001
aF0.001
aF0.001
aF0.001
aF0.001
aF0.001
aF0.001
aF0.001
aF0.001
aF0.001
aF0.001
aF0.001
aF0.001
aF0.001
aF0.001
aF0.001
aF0.001
aF0.001
aF0.001
aF0.001
aF0.001
aF0.001
aF0.001
aF0.001
aF0.001
aF0.001
aF0.001
aF0.001
aF0.001
aF0.001
aF0.001
aF0.001
aF0.001
aF0.001
aF0.001
aF0.001
aF0.001
aF0.001
aF0.001
aF0.001
aF0.001
aF0.001
aF0.001
aF0.001
aF0.001
aF0.001
aF0.001
aF0.001
aF0.001
aF0.001
aF0.001
aF0.001
aF0.001
aF0.001
aF0.001
aF0.001
aF0.001
aF0.001
aF0.001
aF0.001
aF0.001
aF0.001
aF0.001
aF0.001
aF0.001
aF0.001
aF0.001
aF0.001
aF0.001
aF0.001
aF0.001
aF0.001
aF0.001
aF0.001
aF0.001
aF0.001
aF0.001
aF0.001
aF0.001
aF0.001
aF0.001
aF0.001
aF0.001
aF0.001
aF0.001
aF0.001
aF0.001
aF0.001
aF0.001
aF0.001
aF0.001
aF0.001
aF0.001
aF0.001
aF0.001
aF0.001
aF0.001
aF0.001
aF0.001
aF0.001
aF0.001
aF0.001
aF0.001
aF0.001
aF0.001
aF0.001
aF0.001
aF0.001
aF0.001
aF0.001
aF0.001
aF0.001
aF0.001
aF0.001
aF0.001
aF0.001
aF0.001
aF0.001
aF0.001
aF0.001
aF0.001
aF0.001
aF0.001
aF0.001
aF0.001
aF0.001
aF0.001
aF0.001
aF0.001
aF0.001
aF0.001
aF0.001
aF0.001
aF0.001
aF0.001
aF0.001
aF0.001
aF0.001
aF0.001
aF0.001
aF0.001
aF0.001
aF0.001
aF0.001
aF0.001
aF0.001
aF0.001
aF0.001
aF0.001
aF0.001
aF0.001
aF0.001
aF0.001
aF0.001
aF0.001
aF0.001
aF0.001
aF0.001
aF0.001
aF0.001
aF0.001
aF0.001
aF0.001
aF0.001
aF0.001
aF0.001
aF0.001
aF0.001
aF0.001
aF0.001
aF0.001
aF0.001
aF0.001
aF0.001
aF0.001
aF0.001
aF0.001
aF0.001
aF0.001
aF0.001
aF0.001
aF0.001
aF0.001
aF0.001
aF0.001
aF0.001
aF0.001
aF0.001
aF0.001
aF0.001
aF0.001
aF0.001
aF0.001
aF0.001
aF0.001
aF0.001
aF0.001
aF0.001
aF0.001
aF0.001
aF0.001
aF0.001
aF0.001
aF0.001
aF0.001
aF0.001
aF0.001
aF0.001
aF0.001
aF0.001
aF0.001
aF0.001
aF0.001
aF0.001
aF0.001
aF0.001
aF0.001
aF0.001
aF0.001
aF0.001
aF0.001
aF0.001
aF0.001
aF0.001
aF0.001
aF0.001
aF0.001
aF0.001
aF0.001
aF0.001
aF0.001
aF0.001
aF0.001
aF0.001
aF0.001
aF0.001
aF0.001
aF0.001
aF0.001
aF0.001
aF0.001
aF0.001
aF0.001
aF0.001
aF0.001
aF0.001
aF0.001
aF0.001
aF0.001
aF0.001
aF0.001
aF0.001
aF0.001
aF0.001
aF0.001
aF0.001
aF0.001
aF0.001
aF0.001
aF0.001
aF0.001
aF0.001
aF0.001
aF0.001
aF0.001
aF0.001
aF0.001
aF0.001
aF0.001
aF0.001
aF0.001
aF0.001
aF0.001
aF0.001
aF0.001
aF0.001
aF0.001
aF0.001
aF0.001
aF0.001
aF0.001
aF0.001
aF0.001
aF0.001
aF0.001
aF0.001
aF0.001
aF0.001
aF0.001
aF0.001
aF0.001
aF0.001
aF0.001
aF0.001
aF0.001
aF0.001
aF0.001
aF0.001
aF0.0001
aF0.0001
aF0.0001
aF0.0001
aF0.0001
aF0.0001
aF0.0001
aF0.0001
aF0.0001
aF0.0001
aF0.0001
aF0.0001
aF0.0001
aF0.0001
aF0.0001
aF0.0001
aF0.0001
aF0.0001
aF0.0001
aF0.0001
aF0.0001
aF0.0001
aF0.0001
aF0.0001
aF0.0001
aF0.0001
aF0.0001
aF0.0001
aF0.0001
aF0.0001
aF0.0001
aF0.0001
aF0.0001
aF0.0001
aF0.0001
aF0.0001
aF0.0001
aF0.0001
aF0.0001
aF0.0001
aF0.0001
aF0.0001
aF0.0001
aF0.0001
aF0.0001
aF0.0001
aF0.0001
aF0.0001
aF0.0001
aF0.0001
aF0.0001
aF0.0001
aF0.0001
aF0.0001
aF0.0001
aF0.0001
aF0.0001
aF0.0001
aF0.0001
aF0.0001
aF0.0001
aF0.0001
aF0.0001
aF0.0001
aF0.0001
aF0.0001
aF0.0001
aF0.0001
aF0.0001
aF0.0001
aF0.0001
aF0.0001
aF0.0001
aF0.0001
aF0.0001
aF0.0001
aF0.0001
aF0.0001
aF0.0001
aF0.0001
aF0.0001
aF0.0001
aF0.0001
aF0.0001
aF0.0001
aF0.0001
aF0.0001
aF0.0001
aF0.0001
aF0.0001
aF0.0001
aF0.0001
aF0.0001
aF0.0001
aF0.0001
aF0.0001
aF0.0001
aF0.0001
aF0.0001
aF0.0001
aF0.0001
aF0.0001
aF0.0001
aF0.0001
aF0.0001
aF0.0001
aF0.0001
aF0.0001
aF0.0001
aF0.0001
aF0.0001
aF0.0001
aF0.0001
aF0.0001
aF0.0001
aF0.0001
aF0.0001
aF0.0001
aF0.0001
aF0.0001
aF0.0001
aF0.0001
aF0.0001
aF0.0001
aF0.0001
aF0.0001
aF0.0001
aF0.0001
aF0.0001
aF0.0001
aF0.0001
aF0.0001
aF0.0001
aF0.0001
aF0.0001
aF0.0001
aF0.0001
aF0.0001
aF0.0001
aF0.0001
aF0.0001
aF0.0001
aF0.0001
aF0.0001
aF0.0001
aF0.0001
aF0.0001
aF0.0001
aF0.0001
aF0.0001
aF0.0001
aF0.0001
aF0.0001
aF0.0001
aF0.0001
aF0.0001
aF0.0001
aF0.0001
aF0.0001
aF0.0001
aF0.0001
aF0.0001
aF0.0001
aF0.0001
aF0.0001
aF0.0001
aF0.0001
aF0.0001
aF0.0001
aF0.0001
aF0.0001
aF0.0001
aF0.0001
aF0.0001
aF0.0001
aF0.0001
aF0.0001
aF0.0001
aF0.0001
aF0.0001
aF0.0001
aF0.0001
aF0.0001
aF0.0001
aF0.0001
aF0.0001
aF0.0001
aF0.0001
aF0.0001
aF0.0001
aF0.0001
aF0.0001
aF0.0001
aF0.0001
aF0.0001
aF0.0001
aF0.0001
aF0.0001
aF0.0001
aF0.0001
aF0.0001
aF0.0001
aF0.0001
aF0.0001
aF0.0001
aF0.0001
aF0.0001
aF0.0001
aF0.0001
aF0.0001
aF0.0001
aF0.0001
aF0.0001
aF0.0001
aF0.0001
aF0.0001
aF0.0001
aF0.0001
aF0.0001
aF0.0001
aF0.0001
aF0.0001
aF0.0001
aF0.0001
aF0.0001
aF0.0001
aF0.0001
aF0.0001
aF0.0001
aF0.0001
aF0.0001
aF0.0001
aF0.0001
aF0.0001
aF0.0001
aF0.0001
aF0.0001
aF0.0001
aF0.0001
aF0.0001
aF0.0001
aF0.0001
aF0.0001
aF0.0001
aF0.0001
aF0.0001
aF0.0001
aF0.0001
aF0.0001
aF0.0001
aF0.0001
aF0.0001
aF0.0001
aF0.0001
aF0.0001
aF0.0001
aF0.0001
aF0.0001
aF0.0001
aF0.0001
aF0.0001
aF0.0001
aF0.0001
aF0.0001
aF0.0001
aF0.0001
aF0.0001
aF0.0001
aF0.0001
aF0.0001
aF0.0001
aF0.0001
aF0.0001
aF0.0001
aF0.0001
aF0.0001
aF0.0001
aF0.0001
aF0.0001
aF0.0001
aF0.0001
aF0.0001
aF0.0001
aF0.0001
aF0.0001
aF0.0001
aF0.0001
aF0.0001
aF0.0001
aF0.0001
aF0.0001
aF0.0001
aF0.0001
aF0.0001
aF0.0001
aF0.0001
aF0.0001
aF0.0001
aF0.0001
aF0.0001
aF0.0001
aF0.0001
aF0.0001
aF0.0001
aF0.0001
aF0.0001
aF0.0001
aF0.0001
aF0.0001
aF0.0001
aF0.0001
aF0.0001
aF0.0001
aF0.0001
aF0.0001
aF0.0001
aF0.0001
aF0.0001
aF0.0001
aF0.0001
aF0.0001
aF0.0001
aF0.0001
aF0.0001
aF0.0001
aF0.0001
aF0.0001
aF0.0001
aF0.0001
aF0.0001
aF0.0001
aF0.0001
aF0.0001
aF0.0001
aF0.0001
aF0.0001
aF0.0001
aF0.0001
aF0.0001
aF0.0001
aF0.0001
aF0.0001
aF0.0001
aF0.0001
aF0.0001
aF0.0001
aF0.0001
aF0.0001
aF0.0001
aF0.0001
aF0.0001
aF0.0001
aF0.0001
aF0.0001
aF0.0001
aF0.0001
aF0.0001
aF0.0001
aF0.0001
aF0.0001
aF0.0001
aF0.0001
aF0.0001
aF0.0001
aF0.0001
aF0.0001
aF0.0001
aF0.0001
aF0.0001
aF0.0001
aF0.0001
aF0.0001
aF0.0001
aF0.0001
aF0.0001
aF0.0001
aF0.0001
aF0.0001
aF0.0001
aF0.0001
aF0.0001
aF0.0001
aF0.0001
aF0.0001
aF0.0001
aF0.0001
aF0.0001
aF0.0001
aF0.0001
aF0.0001
aF0.0001
aF0.0001
aF0.0001
aF0.0001
aF0.0001
aF0.0001
aF0.0001
aF0.0001
aF0.0001
aF0.0001
aF0.0001
aF0.0001
aF0.0001
aF0.0001
aF0.0001
aF0.0001
aF0.0001
aF0.0001
aF0.0001
aF0.0001
aF0.0001
aF0.0001
aF0.0001
aF0.0001
aF0.0001
aF0.0001
aF0.0001
aF0.0001
aF0.0001
aF0.0001
aF0.0001
aF0.0001
aF0.0001
aF0.0001
aF0.0001
aF0.0001
aF0.0001
aF0.0001
aF0.0001
aF0.0001
aF0.0001
aF0.0001
aF0.0001
aF0.0001
aF0.0001
aF0.0001
aF0.0001
aF0.0001
aF0.0001
aF0.0001
aF0.0001
aF0.0001
aF0.0001
aF0.0001
aF0.0001
aF0.0001
aF0.0001
aF0.0001
aF0.0001
aF0.0001
aF0.0001
aF0.0001
aF0.0001
aF0.0001
aF0.0001
aF0.0001
aF0.0001
aF0.0001
aF0.0001
aF0.0001
aF0.0001
aF0.0001
aF0.0001
aF0.0001
aF0.0001
aF0.0001
aF0.0001
aF0.0001
aF0.0001
aF0.0001
aF0.0001
aF0.0001
aF0.0001
aF0.0001
aF0.0001
aF0.0001
aF0.0001
aF0.0001
aF0.0001
aF0.0001
aF0.0001
aF0.0001
aF0.0001
aF0.0001
aF0.0001
aF0.0001
aF0.0001
aF0.0001
aF0.0001
aF0.0001
aF0.0001
aF0.0001
aF0.0001
aF0.0001
aF0.0001
aF0.0001
aF0.0001
aF0.0001
aF0.0001
aF0.0001
aF0.0001
aF0.0001
aF0.0001
aF0.0001
aF0.0001
aF0.0001
aF0.0001
aF0.0001
aF0.0001
aF0.0001
aF0.0001
aF0.0001
aF0.0001
aF0.0001
aF0.0001
aF0.0001
aF0.0001
aF0.0001
aF0.0001
aF0.0001
aF0.0001
aF0.0001
aF0.0001
aF0.0001
aF0.0001
aF0.0001
aF0.0001
aF0.0001
aF0.0001
aF0.0001
aF0.0001
aF0.0001
aF0.0001
aF0.0001
aF0.0001
aF0.0001
aF0.0001
aF0.0001
aF0.0001
aF0.0001
aF0.0001
aF0.0001
aF0.0001
aF0.0001
aF0.0001
aF0.0001
aF0.0001
aF0.0001
aF0.0001
aF0.0001
aF1e-05
aF1e-05
aF1e-05
aF1e-05
aF1e-05
aF1e-05
aF1e-05
aF1e-05
aF1e-05
aF1e-05
aF1e-05
aF1e-05
aF1e-05
aF1e-05
aF1e-05
aF1e-05
aF1e-05
atp41
tp42
Rp43
aatp44
Rp45
sS'val_outputs'
p46
g19
((lp47
(lp48
g22
ag0
(g23
g24
(g25
(lp49
I0
aF1.0
aF2.0
aF3.0
aF4.0
aF5.0
aF6.0
aF7.0
aF8.0
aF9.0
aF10.0
aF11.0
aF12.0
aF13.0
aF14.0
aF15.0
aF16.0
aF17.0
aF18.0
aF19.0
aF20.0
aF21.0
aF22.0
aF23.0
aF24.0
aF25.0
aF26.0
aF27.0
aF28.0
aF29.0
aF30.0
aF31.0
aF32.0
aF33.0
aF34.0
aF35.0
aF36.0
aF37.0
aF38.0
aF39.0
aF40.0
aF41.0
aF42.0
aF43.0
aF44.0
aF45.0
aF46.0
aF47.0
aF48.0
aF49.0
aF50.0
aF51.0
aF52.0
aF53.0
aF54.0
aF55.0
aF56.0
aF57.0
aF58.0
aF59.0
aF60.0
aF61.0
aF62.0
aF63.0
aF64.0
aF65.0
aF66.0
aF67.0
aF68.0
aF69.0
aF70.0
aF71.0
aF72.0
aF73.0
aF74.0
aF75.0
aF76.0
aF77.0
aF78.0
aF79.0
aF80.0
aF81.0
aF82.0
aF83.0
aF84.0
aF85.0
aF86.0
aF87.0
aF88.0
aF89.0
aF90.0
aF91.0
aF92.0
aF93.0
aF94.0
aF95.0
aF96.0
aF97.0
aF98.0
aF99.0
aF100.0
aF101.0
aF102.0
aF103.0
aF104.0
aF105.0
aF106.0
aF107.0
aF108.0
aF109.0
aF110.0
aF111.0
aF112.0
aF113.0
aF114.0
aF115.0
aF116.0
aF117.0
aF118.0
aF119.0
aF120.0
aF121.0
aF122.0
aF123.0
aF124.0
aF125.0
aF126.0
aF127.0
aF128.0
aF129.0
aF130.0
aF131.0
aF132.0
aF133.0
aF134.0
aF135.0
aF136.0
aF137.0
aF138.0
aF139.0
aF140.0
aF141.0
aF142.0
aF143.0
aF144.0
aF145.0
aF146.0
aF147.0
aF148.0
aF149.0
aF150.0
aF151.0
aF152.0
aF153.0
aF154.0
aF155.0
aF156.0
aF157.0
aF158.0
aF159.0
aF160.0
aF161.0
aF162.0
aF163.0
aF164.0
aF165.0
aF166.0
aF167.0
aF168.0
aF169.0
aF170.0
aF171.0
aF172.0
aF173.0
aF174.0
aF175.0
aF176.0
aF177.0
aF178.0
aF179.0
aF180.0
aF181.0
aF182.0
aF183.0
aF184.0
aF185.0
aF186.0
aF187.0
aF188.0
aF189.0
aF190.0
aF191.0
aF192.0
aF193.0
aF194.0
aF195.0
aF196.0
aF197.0
aF198.0
aF199.0
aF200.0
atp50
tp51
Rp52
aa(lp53
S'accuracy'
p54
ag0
(g23
g24
(S'Accuracy'
p55
(lp56
F0.207237
aF0.925752
aF0.973684
aF0.986137
aF0.992481
aF0.994596
aF0.993891
aF0.994361
aF0.996711
aF0.996241
aF0.997885
aF0.996241
aF0.996006
aF0.99765
aF0.996006
aF0.997415
aF0.995771
aF0.996476
aF0.997885
aF0.99812
aF0.996711
aF0.997885
aF0.996946
aF0.996476
aF0.996241
aF0.996476
aF0.99812
aF0.99812
aF0.998825
aF0.99812
aF0.99859
aF0.996946
aF0.998355
aF0.99718
aF0.998825
aF0.99953
aF0.998355
aF0.99812
aF0.998825
aF0.997415
aF0.998355
aF0.998355
aF0.99812
aF0.997885
aF0.995536
aF0.997415
aF0.997885
aF0.997885
aF0.996711
aF0.99812
aF0.997885
aF0.997885
aF0.997415
aF0.997885
aF0.991306
aF0.99718
aF0.997885
aF0.996241
aF0.996946
aF0.996711
aF0.997885
aF0.990132
aF0.997415
aF0.995536
aF0.986607
aF0.992716
aF0.981673
aF0.995536
aF0.996946
aF0.99718
aF0.997885
aF0.998355
aF0.997885
aF0.998355
aF0.99765
aF0.998355
aF0.998825
aF0.99859
aF0.998355
aF0.998355
aF0.998825
aF0.99859
aF0.998825
aF0.998825
aF0.99859
aF0.99812
aF0.998355
aF0.998355
aF0.998355
aF0.99812
aF0.998355
aF0.99812
aF0.99812
aF0.997885
aF0.99812
aF0.998355
aF0.998355
aF0.99859
aF0.998355
aF0.998355
aF0.99859
aF0.998355
aF0.998355
aF0.998355
aF0.99859
aF0.998825
aF0.998825
aF0.998825
aF0.99859
aF0.998825
aF0.99859
aF0.99859
aF0.998825
aF0.998825
aF0.99859
aF0.998825
aF0.99859
aF0.99859
aF0.998825
aF0.99859
aF0.99859
aF0.99859
aF0.998825
aF0.998825
aF0.99859
aF0.99859
aF0.998825
aF0.998825
aF0.998825
aF0.998825
aF0.99859
aF0.998825
aF0.998825
aF0.998825
aF0.998825
aF0.998825
aF0.998825
aF0.998825
aF0.998825
aF0.998825
aF0.998825
aF0.998825
aF0.998825
aF0.998825
aF0.998825
aF0.998825
aF0.998825
aF0.998825
aF0.998825
aF0.998825
aF0.998825
aF0.99859
aF0.998825
aF0.998825
aF0.998825
aF0.998825
aF0.998825
aF0.998825
aF0.998825
aF0.998825
aF0.998825
aF0.998825
aF0.998825
aF0.998825
aF0.998825
aF0.998825
aF0.998825
aF0.998825
aF0.998825
aF0.998825
aF0.998825
aF0.998825
aF0.998825
aF0.998825
aF0.998825
aF0.998825
aF0.998825
aF0.998825
aF0.998825
aF0.998825
aF0.998825
aF0.998825
aF0.998825
aF0.998825
aF0.998825
aF0.998825
aF0.998825
aF0.998825
aF0.998825
aF0.998825
aF0.998825
aF0.998825
aF0.998825
aF0.998825
aF0.998825
aF0.998825
aF0.998825
aF0.998825
aF0.998825
aF0.998825
aF0.998825
atp57
tp58
Rp59
aa(lp60
S'loss'
p61
ag0
(g23
g24
(S'SoftmaxWithLoss'
p62
(lp63
F1.61152
aF0.16933
aF0.0719634
aF0.0342821
aF0.0253928
aF0.0144123
aF0.0175997
aF0.0233267
aF0.00880898
aF0.0108337
aF0.00719913
aF0.0135619
aF0.0144195
aF0.00977264
aF0.0168929
aF0.0131593
aF0.0212332
aF0.0132284
aF0.0139426
aF0.0114158
aF0.0233425
aF0.00674684
aF0.0180088
aF0.0146938
aF0.0139083
aF0.0163698
aF0.00617349
aF0.00700826
aF0.0036944
aF0.00530839
aF0.00835778
aF0.0111528
aF0.0088646
aF0.00697797
aF0.00495103
aF0.000989571
aF0.00631512
aF0.00970682
aF0.00426768
aF0.00970838
aF0.00588854
aF0.00926954
aF0.00532823
aF0.0074981
aF0.0198663
aF0.00767721
aF0.0116901
aF0.00803605
aF0.0141641
aF0.0124014
aF0.0114217
aF0.0128847
aF0.015509
aF0.00734852
aF0.0503594
aF0.0195731
aF0.0115138
aF0.0171137
aF0.0150302
aF0.0164659
aF0.0108807
aF0.0580877
aF0.00778228
aF0.0150749
aF0.0912965
aF0.0636978
aF0.0831496
aF0.0194171
aF0.0167355
aF0.0151356
aF0.0100729
aF0.00937254
aF0.00977362
aF0.00887816
aF0.0118452
aF0.0102352
aF0.00883161
aF0.00824202
aF0.00781703
aF0.00986749
aF0.00862593
aF0.00831741
aF0.00715263
aF0.007456
aF0.00838594
aF0.00912625
aF0.00883157
aF0.00765953
aF0.00755692
aF0.00794894
aF0.00813584
aF0.0093016
aF0.00959093
aF0.00997471
aF0.0111579
aF0.0112584
aF0.0109313
aF0.0103574
aF0.0104297
aF0.0105697
aF0.00950121
aF0.0100588
aF0.0113606
aF0.0103544
aF0.00958077
aF0.00952968
aF0.00925245
aF0.00931524
aF0.0102942
aF0.00971166
aF0.0111034
aF0.0104903
aF0.00935085
aF0.00937033
aF0.0116793
aF0.00939471
aF0.00965907
aF0.00976898
aF0.00930477
aF0.00988342
aF0.0100295
aF0.00959777
aF0.00919021
aF0.0093996
aF0.00945569
aF0.0111917
aF0.0105519
aF0.0105144
aF0.0108466
aF0.0105774
aF0.0112743
aF0.0102692
aF0.010342
aF0.010331
aF0.0103454
aF0.0103672
aF0.0103361
aF0.01024
aF0.010146
aF0.0101425
aF0.0101018
aF0.010132
aF0.0100892
aF0.0100541
aF0.0100945
aF0.0101045
aF0.0101101
aF0.0100776
aF0.010143
aF0.0102131
aF0.0102143
aF0.0115302
aF0.0102895
aF0.0102975
aF0.010345
aF0.0103692
aF0.0103795
aF0.0103514
aF0.0103553
aF0.0103685
aF0.0103578
aF0.0103393
aF0.0103348
aF0.0103364
aF0.0103099
aF0.0102827
aF0.0102592
aF0.010249
aF0.0102125
aF0.0102105
aF0.0101713
aF0.0101534
aF0.0101232
aF0.0101263
aF0.0100662
aF0.0100529
aF0.00993988
aF0.00992167
aF0.00992812
aF0.00985677
aF0.00985515
aF0.00982447
aF0.00980643
aF0.00977528
aF0.00975639
aF0.00976476
aF0.00974664
aF0.00983687
aF0.00988017
aF0.00992909
aF0.00993079
aF0.0100282
aF0.0099983
aF0.0100394
aF0.0100416
aF0.0100653
aF0.0100065
aF0.0100613
aF0.0100488
aF0.0100391
aF0.0100399
atp64
tp65
Rp66
aatp67
Rp68
sS'loaded_snapshot_epoch'
p69
NsS'pretrained_model'
p70
NsS'deploy_file'
p71
S'deploy.prototxt'
p72
sS'current_iteration'
p73
I20000
sS'gpu_count'
p74
I1
sS'rms_decay'
p75
F0.99
sS'traces_interval'
p76
I0
sS'train_epochs'
p77
I200
sS'network'
p78
ccaffe_pb2
NetParameter
p79
(tRp80
(dp81
S'serialized'
p82
S'\n\x07AlexNet\xa2\x066\n\ntrain-data\x12\x04Data"\x04data"\x05labelB\x07"\x05train\xa2\x06\x05\x10\x01\x18\xe3\x01\xda\x06\x03 \x80\x01\xa2\x06/\n\x08val-data\x12\x04Data"\x04data"\x05labelB\x05"\x03val\xa2\x06\x03\x18\xe3\x01\xda\x06\x02  \xa2\x06d\n\x05conv1\x12\x0bConvolution\x1a\x04data"\x05conv12\n\x1d\x00\x00\x80?%\x00\x00\x80?2\n\x1d\x00\x00\x00@%\x00\x00\x00\x00\xd2\x06(\x08  \x080\x04:\x0f\n\x08gaussian5\n\xd7#<B\x0f\n\x08constant\x15\x00\x00\x00\x00\xa2\x06\x1b\n\x05relu1\x12\x04ReLU\x1a\x05conv1"\x05conv1\xa2\x06)\n\x05norm1\x12\x03LRN\x1a\x05conv1"\x05norm1\xb2\x07\x0c\x08\x05\x15\x17\xb7\xd18\x1d\x00\x00@?\xa2\x06\'\n\x05pool1\x12\x07Pooling\x1a\x05norm1"\x05pool1\xca\x07\x06\x08\x00\x10\x03\x18\x01\xa2\x06g\n\x05conv2\x12\x0bConvolution\x1a\x05pool1"\x05conv22\n\x1d\x00\x00\x80?%\x00\x00\x80?2\n\x1d\x00\x00\x00@%\x00\x00\x00\x00\xd2\x06*\x08@\x18\x00 \x040\x02:\x0f\n\x08gaussian5\n\xd7#<B\x0f\n\x08constant\x15\x00\x00\x00\x00\xa2\x06\x1b\n\x05relu2\x12\x04ReLU\x1a\x05conv2"\x05conv2\xa2\x06g\n\x05conv3\x12\x0bConvolution\x1a\x05conv2"\x05conv32\n\x1d\x00\x00\x80?%\x00\x00\x80?2\n\x1d\x00\x00\x00@%\x00\x00\x00\x00\xd2\x06*\x08@\x18\x00 \x030\x01:\x0f\n\x08gaussian5\n\xd7#<B\x0f\n\x08constant\x15\x00\x00\x00\x00\xa2\x06\x1b\n\x05relu3\x12\x04ReLU\x1a\x05conv3"\x05conv3\xa2\x06_\n\x03fc7\x12\x0cInnerProduct\x1a\x05conv3"\x03fc72\n\x1d\x00\x00\x80?%\x00\x00\x80?2\n\x1d\x00\x00\x00@%\x00\x00\x00\x00\xaa\x07%\x08\x80\x04\x1a\x0f\n\x08gaussian5\n\xd7\xa3;"\x0f\n\x08constant\x15\xcd\xcc\xcc=\xa2\x06\x17\n\x05relu7\x12\x04ReLU\x1a\x03fc7"\x03fc7\xa2\x06"\n\x05drop7\x12\x07Dropout\x1a\x03fc7"\x03fc7\xe2\x06\x05\r\x00\x00\x00?\xa2\x06\x82\x01\n+fc8_retrain_retrain_retrain_retrain_retrain\x12\x0cInnerProduct\x1a\x03fc7"\x03fc82\n\x1d\x00\x00\x80?%\x00\x00\x80?2\n\x1d\x00\x00\x00@%\x00\x00\x00\x00\xaa\x07"\x1a\x0f\n\x08gaussian5\n\xd7#<"\x0f\n\x08constant\x15\x00\x00\x00\x00\xa2\x061\n\x08accuracy\x12\x08Accuracy\x1a\x03fc8\x1a\x05label"\x08accuracyB\x05"\x03val\xa2\x063\n\x04loss\x12\x0fSoftmaxWithLoss\x1a\x03fc8\x1a\x05label"\x04lossJ\x08"\x06deploy\xa2\x06*\n\x07softmax\x12\x07Softmax\x1a\x03fc8"\x07softmaxB\x08"\x06deploy'
p83
sbsS'use_mean'
p84
Vimage
p85
sS'timeline_traces'
p86
(lp87
sS'model_file'
p88
S'original.prototxt'
p89
sS'job_dir'
p90
S'/home/fei/digits/digits/jobs/20180426-174638-7fa3'
p91
sS'receiving_val_output'
p92
I00
sS'parents'
p93
NsS'progress'
p94
F1.0
sS'lr_policy'
p95
(dp96
S'policy'
p97
Vstep
p98
sS'stepsize'
p99
F33.0
sS'gamma'
p100
F0.1
ssS'crop_size'
p101
I110
sS'receiving_train_output'
p102
I00
sS'val_interval'
p103
F1.0
sS'current_epoch'
p104
F200.0
sS'random_seed'
p105
NsS'saving_snapshot'
p106
I00
sS'pickver_task_caffe_train'
p107
I5
sg38
F0.01
sS'loaded_snapshot_file'
p108
NsS'batch_size'
p109
NsS'digits_version'
p110
S'6.1.1'
p111
sS'job'
p112
g4
sS'pickver_task_train'
p113
I2
sS'current_resources'
p114
NsS'pickver_task'
p115
I1
sS'job_id'
p116
S'20180426-174638-7fa3'
p117
sS'exception'
p118
NsS'data_aug'
p119
(dp120
S'scale'
p121
F0.0
sS'hsv_use'
p122
I00
sS'flip'
p123
Vnone
p124
sS'quad_rot'
p125
Vnone
p126
sS'noise'
p127
F0.0
sS'whitening'
p128
I00
sS'hsv_h'
p129
F0.02
sS'hsv_s'
p130
F0.04
sS'rot'
p131
I0
sS'hsv_v'
p132
F0.06
sS'contrast'
p133
F0.0
ssS'selected_gpus'
p134
NsS'caffe_flavor'
p135
S'BVLC'
p136
sS'snapshot_prefix'
p137
S'snapshot'
p138
sS'solver'
p139
ccaffe_pb2
SolverParameter
p140
(tRp141
(dp142
g82
S'\x18\x85\x01 d-\n\xd7#<0\x0c8\xa0\x9c\x01B\x04stepM\xcd\xcc\xcc=]fff?e\x17\xb7\xd18h\xc83p\x90Nz\x08snapshot\x88\x01\x01\xc2\x01\x12train_val.prototxt\xf0\x01\x00'
p143
sbsS'framework_id'
p144
S'caffe'
p145
sS'status_history'
p146
(lp147
((idigits.status
Status
p148
S'I'
p150
bF1524757598.482827
tp151
a((idigits.status
Status
p152
S'R'
p153
bF1524757599.801401
tp154
a((idigits.status
Status
p155
S'D'
p156
bF1524762131.798481
tp157
asS'last_train_update'
p158
F1524762123.965316
sS'train_val_file'
p159
S'train_val.prototxt'
p160
sS'image_mean'
p161
NsS'batch_accumulation'
p162
NsS'caffe_version'
p163
S'1.0.0'
p164
sS'log_file'
p165
S'caffe_output.log'
p166
sS'solver_file'
p167
S'solver.prototxt'
p168
sS'solver_type'
p169
VSGD
p170
sbasS'pickver_job'
p171
I2
sS'dataset_id'
p172
S'20180415-214447-7028'
p173
sS'pickver_job_model_image'
p174
I1
sg118
NsS'group'
p175
V
p176
sS'persistent'
p177
I01
sS'_name'
p178
Vrobot_110_classBall_DQN_1max_200ep
p179
sS'form_data'
p180
(dp181
S'form.standard_networks.data'
p182
VNone
p183
sS'form.learning_rate.data'
p184
(lp185
F0.01
asS'form.aug_flip.data'
p186
g124
sS'form.select_gpus.data'
p187
(lp188
sS'form.framework.data'
p189
Vcaffe
p190
sS'form.dataset.data'
p191
V20180415-214447-7028
p192
sS'form.python_layer_from_client.data'
p193
I00
sS'form.lr_multistep_values.data'
p194
V50,85
p195
sS'form.aug_hsv_s.data'
p196
F0.04
sS'form.lr_sigmoid_gamma.data'
p197
F0.1
sS'form.lr_policy.data'
p198
g98
sS'form.aug_contrast.data'
p199
F0.0
sS'form.previous_networks.data'
p200
V20180426-154926-f764
p201
sS'form.python_layer_client_file.data'
p202
g176
sS'form.select_gpu.data'
p203
Vnext
p204
sS'form.aug_quad_rot.data'
p205
g126
sS'form.rms_decay.data'
p206
F0.99
sS'form.method.data'
p207
Vprevious
p208
sS'form.lr_sigmoid_step.data'
p209
F50.0
sS'form.crop_size.data'
p210
NsS'form.select_gpu_count.data'
p211
I1
sS'form.python_layer_server_file.data'
p212
g176
sS'form.pretrained_networks.data'
p213
VNone
p214
sS'form.solver_type.data'
p215
g170
sS'form.aug_noise.data'
p216
F0.0
sS'form.select_gpus_list.data'
p217
g176
sS'form.traces_interval.data'
p218
I0
sS'form.shuffle.data'
p219
I01
sS'form.aug_scale.data'
p220
F0.0
sS'form.batch_accumulation.data'
p221
NsS'form.batch_size.data'
p222
(lp223
NasS'form.custom_network.data'
p224
g176
sS'form.group_name.data'
p225
g176
sS'form.use_mean.data'
p226
g85
sS'form.lr_inv_gamma.data'
p227
F0.1
sS'form.lr_step_gamma.data'
p228
F0.1
sS'form.snapshot_interval.data'
p229
F100.0
sS'form.lr_step_size.data'
p230
F33.0
sS'form.aug_hsv_use.data'
p231
I00
sS'form.lr_inv_power.data'
p232
F0.5
sS'form.aug_whitening.data'
p233
I00
sS'form.aug_hsv_v.data'
p234
F0.06
sS'form.custom_network_snapshot.data'
p235
g176
sS'form.lr_poly_power.data'
p236
F3.0
sS'form.lr_multistep_gamma.data'
p237
F0.5
sS'form.model_name.data'
p238
g179
sS'form.lr_exp_gamma.data'
p239
F0.95
sS'form.val_interval.data'
p240
F1.0
sS'form.aug_rot.data'
p241
I0
sS'form.train_epochs.data'
p242
I200
sS'form.random_seed.data'
p243
NsS'form.aug_hsv_h.data'
p244
F0.02
ssg94
F1.0
sS'_id'
p245
S'20180426-174638-7fa3'
p246
sS'pickver_job_dataset'
p247
I1
sg146
(lp248
((idigits.status
Status
p249
g150
bF1524757598.482252
tp250
a((idigits.status
Status
p251
g153
bF1524757599.638525
tp252
a((idigits.status
Status
p253
g156
bF1524762132.185758
tp254
asS'pickver_job_model_image_classification'
p255
I1
sb.