ccopy_reg
_reconstructor
p0
(cdigits.dataset.images.classification.job
ImageClassificationDatasetJob
p1
c__builtin__
object
p2
Ntp3
Rp4
(dp5
S'username'
p6
Visaac
p7
sS'_notes'
p8
NsS'tasks'
p9
(lp10
g0
(cdigits.dataset.tasks.parse_folder
ParseFolderTask
p11
g2
Ntp12
Rp13
(dp14
S'train_count'
p15
I12714
sS'percent_test'
p16
F0.0
sS'labels_file'
p17
S'labels.txt'
p18
sS'percent_val'
p19
F25.0
sS'val_file'
p20
S'val.txt'
p21
sS'pickver_task_parsefolder'
p22
I1
sS'test_count'
p23
I0
sS'max_per_category'
p24
NsS'pickver_task'
p25
I1
sS'exception'
p26
NsS'current_resources'
p27
NsS'job_id'
p28
S'20180415-214447-7028'
p29
sS'train_file'
p30
S'train.txt'
p31
sS'traceback'
p32
NsS'label_count'
p33
I5
sS'job_dir'
p34
S'/home/fei/digits/digits/jobs/20180415-214447-7028'
p35
sS'parents'
p36
NsS'progress'
p37
F1.0
sS'folder'
p38
V/home/fei/Documents/isaac/3DNN/dataset_robot/Class_Ball
p39
sS'min_per_category'
p40
I2
sS'val_count'
p41
I4236
sS'status_history'
p42
(lp43
((idigits.status
Status
p44
S'I'
p46
bF1523821487.251901
tp47
a((idigits.status
Status
p48
S'R'
p49
bF1523821488.947391
tp50
a((idigits.status
Status
p51
S'D'
p52
bF1523821496.216489
tp53
asbag0
(cdigits.dataset.tasks.create_db
CreateDbTask
p54
g2
Ntp55
Rp56
(dp57
g17
g18
sg32
NsS'shuffle'
p58
I01
sS'pickver_task_createdb'
p59
I3
sS'encoding'
p60
Vpng
p61
sS'image_dims'
p62
(I110
I110
I3
tp63
sS'resize_mode'
p64
Vsquash
p65
sS'mean_file'
p66
S'mean.binaryproto'
p67
sS'db_name'
p68
S'train_db'
p69
sS'delete_files'
p70
I00
sS'create_db_log_file'
p71
S'create_train_db.log'
p72
sS'entries_count'
p73
I12714
sg25
I1
sS'distribution'
p74
(dp75
V1
p76
(dp77
S'count'
p78
I2414
sS'error_count'
p79
I0
ssV0
p80
(dp81
g78
I2305
sg79
I0
ssV3
p82
(dp83
g78
I2672
sg79
I0
ssV2
p84
(dp85
g78
I1919
sg79
I0
ssV4
p86
(dp87
g78
I3404
sg79
I0
sssS'image_folder'
p88
NsS'backend'
p89
Vlmdb
p90
sS'_labels'
p91
(lp92
S'ballCenter'
p93
aS'ballLeft'
p94
aS'ballRight'
p95
aS'kickLeft'
p96
aS'kickRight'
p97
asg26
Nsg27
NsS'compression'
p98
S'none'
p99
sS'input_file'
p100
g31
sg28
S'20180415-214447-7028'
p101
sg34
g35
sg36
(lp102
g13
asS'image_channel_order'
p103
S'BGR'
p104
sg37
F1.0
sg42
(lp105
((idigits.status
Status
p106
g46
bF1523821487.251986
tp107
a((idigits.status
Status
p108
g49
bF1523821496.553793
tp109
a((idigits.status
Status
p110
g52
bF1523822424.850726
tp111
asS'entries_error'
p112
Nsbag0
(g54
g2
Ntp113
Rp114
(dp115
g17
g18
sg32
Nsg58
I01
sg59
I3
sg60
g61
sg62
g63
sg64
g65
sg66
Nsg68
S'val_db'
p116
sg70
I00
sg71
S'create_val_db.log'
p117
sg73
I4236
sg25
I1
sg74
(dp118
g76
(dp119
g78
I804
sg79
I0
ssg80
(dp120
g78
I768
sg79
I0
ssg82
(dp121
g78
I890
sg79
I0
ssg84
(dp122
g78
I639
sg79
I0
ssg86
(dp123
g78
I1135
sg79
I0
sssg88
Nsg89
g90
sg91
(lp124
S'ballCenter'
p125
aS'ballLeft'
p126
aS'ballRight'
p127
aS'kickLeft'
p128
aS'kickRight'
p129
asg26
Nsg27
Nsg98
g99
sg100
g21
sg28
S'20180415-214447-7028'
p130
sg34
g35
sg36
(lp131
g13
asg103
g104
sg37
F1.0
sg42
(lp132
((idigits.status
Status
p133
g46
bF1523821487.254932
tp134
a((idigits.status
Status
p135
g49
bF1523821496.569453
tp136
a((idigits.status
Status
p137
g52
bF1523821964.141587
tp138
asg112
Nsbasg17
g18
sg62
g63
sg64
g65
sS'pickver_job'
p139
I2
sS'pickver_job_dataset_image'
p140
I1
sg26
NsS'group'
p141
V
p142
sS'pickver_job_dataset_image_classification'
p143
I2
sS'persistent'
p144
I01
sS'_name'
p145
Vrobot_110_classBall
p146
sS'form_data'
p147
(dp148
S'form.s3_path.data'
p149
g142
sS'form.textfile_labels_file.data'
p150
g142
sS'form.textfile_local_train_images.data'
p151
g142
sS'form.resize_height.data'
p152
I110
sS'form.s3_bucket.data'
p153
g142
sS'form.folder_train.data'
p154
g39
sS'form.folder_val_max_per_class.data'
p155
NsS'form.folder_train_min_per_class.data'
p156
I2
sS'form.textfile_val_folder.data'
p157
g142
sS'form.s3_keepcopiesondisk.data'
p158
I00
sS'form.textfile_val_images.data'
p159
g142
sS'form.backend.data'
p160
g90
sS'form.encoding.data'
p161
g61
sS'form.method.data'
p162
Vfolder
p163
sS'form.has_test_folder.data'
p164
I00
sS'form.folder_test_max_per_class.data'
p165
NsS'form.s3_train_max_per_class.data'
p166
NsS'form.folder_val.data'
p167
g142
sS'form.compression.data'
p168
g99
sS'form.s3_secretkey.data'
p169
g142
sS'form.textfile_use_test.data'
p170
I00
sS'form.folder_val_min_per_class.data'
p171
I2
sS'form.folder_pct_test.data'
p172
I0
sS'form.has_val_folder.data'
p173
I00
sS'form.s3_pct_test.data'
p174
I0
sS'form.textfile_local_labels_file.data'
p175
g142
sS'form.s3_train_min_per_class.data'
p176
I2
sS'form.textfile_local_val_images.data'
p177
g142
sS'form.textfile_test_images.data'
p178
g142
sS'form.dataset_name.data'
p179
g146
sS'form.textfile_train_images.data'
p180
g142
sS'form.textfile_train_folder.data'
p181
g142
sS'form.s3_endpoint_url.data'
p182
g142
sS'form.group_name.data'
p183
g142
sS'form.folder_train_max_per_class.data'
p184
NsS'form.folder_test.data'
p185
g142
sS'form.folder_test_min_per_class.data'
p186
I2
sS'form.folder_pct_val.data'
p187
I25
sS'form.resize_mode.data'
p188
g65
sS'form.resize_channels.data'
p189
V3
p190
sS'form.s3_accesskey.data'
p191
g142
sS'form.textfile_test_folder.data'
p192
g142
sS'form.textfile_use_local_files.data'
p193
I00
sS'form.resize_width.data'
p194
I110
sS'form.s3_pct_val.data'
p195
I25
sS'form.textfile_use_val.data'
p196
I01
sS'form.textfile_shuffle.data'
p197
I1
sS'form.textfile_local_test_images.data'
p198
g142
ssg37
F1.0
sS'_id'
p199
S'20180415-214447-7028'
p200
sS'pickver_job_dataset'
p201
I1
sg42
(lp202
((idigits.status
Status
p203
g46
bF1523821487.251724
tp204
a((idigits.status
Status
p205
g49
bF1523821488.58454
tp206
a((idigits.status
Status
p207
g52
bF1523822425.163122
tp208
asb.