ccopy_reg
_reconstructor
p0
(cdigits.model.images.classification.job
ImageClassificationModelJob
p1
c__builtin__
object
p2
Ntp3
Rp4
(dp5
S'username'
p6
Visaac
p7
sS'_notes'
p8
NsS'tasks'
p9
(lp10
g0
(cdigits.model.tasks.caffe_train
CaffeTrainTask
p11
g2
Ntp12
Rp13
(dp14
S'traceback'
p15
NsS'shuffle'
p16
I01
sS'snapshot_interval'
p17
F100.0
sS'train_outputs'
p18
ccollections
OrderedDict
p19
((lp20
(lp21
S'epoch'
p22
ag0
(cdigits.model.tasks.train
NetworkOutput
p23
c__builtin__
tuple
p24
(S'Epoch'
p25
(lp26
I0
aF0.12195121951219512
aF0.24390243902439024
aF0.36585365853658536
aF0.4878048780487805
aF0.6097560975609756
aF0.7317073170731707
aF0.8536585365853658
aF0.975609756097561
aF1.0975609756097562
aF1.2195121951219512
aF1.3414634146341464
aF1.4634146341463414
aF1.5853658536585367
aF1.7073170731707317
aF1.829268292682927
aF1.951219512195122
aF2.073170731707317
aF2.1951219512195124
aF2.317073170731707
aF2.4390243902439024
aF2.5609756097560976
aF2.682926829268293
aF2.8048780487804876
aF2.926829268292683
aF3.048780487804878
aF3.1707317073170733
aF3.292682926829268
aF3.4146341463414633
aF3.5365853658536586
aF3.658536585365854
aF3.7804878048780486
aF3.902439024390244
aF4.024390243902439
aF4.146341463414634
aF4.2682926829268295
aF4.390243902439025
aF4.512195121951219
aF4.634146341463414
aF4.7560975609756095
aF4.878048780487805
aF5.0
aF5.121951219512195
aF5.2439024390243905
aF5.365853658536586
aF5.487804878048781
aF5.609756097560975
aF5.7317073170731705
aF5.853658536585366
aF5.975609756097561
aF6.097560975609756
aF6.219512195121951
aF6.341463414634147
aF6.463414634146342
aF6.585365853658536
aF6.7073170731707314
aF6.829268292682927
aF6.951219512195122
aF7.073170731707317
aF7.195121951219512
aF7.317073170731708
aF7.439024390243903
aF7.560975609756097
aF7.682926829268292
aF7.804878048780488
aF7.926829268292683
aF8.048780487804878
aF8.170731707317072
aF8.292682926829269
aF8.414634146341463
aF8.536585365853659
aF8.658536585365853
aF8.78048780487805
aF8.902439024390244
aF9.024390243902438
aF9.146341463414634
aF9.268292682926829
aF9.390243902439025
aF9.512195121951219
aF9.634146341463415
aF9.75609756097561
aF9.878048780487806
aF10.0
aF10.121951219512194
aF10.24390243902439
aF10.365853658536585
aF10.487804878048781
aF10.609756097560975
aF10.731707317073171
aF10.853658536585366
aF10.975609756097562
aF11.097560975609756
aF11.21951219512195
aF11.341463414634147
aF11.463414634146341
aF11.585365853658537
aF11.707317073170731
aF11.829268292682928
aF11.951219512195122
aF12.073170731707316
aF12.195121951219512
aF12.317073170731707
aF12.439024390243903
aF12.560975609756097
aF12.682926829268293
aF12.804878048780488
aF12.926829268292684
aF13.048780487804878
aF13.170731707317072
aF13.292682926829269
aF13.414634146341463
aF13.536585365853659
aF13.658536585365853
aF13.78048780487805
aF13.902439024390244
aF14.024390243902438
aF14.146341463414634
aF14.268292682926829
aF14.390243902439025
aF14.512195121951219
aF14.634146341463415
aF14.75609756097561
aF14.878048780487806
aF15.0
aF15.121951219512194
aF15.24390243902439
aF15.365853658536585
aF15.487804878048781
aF15.609756097560975
aF15.731707317073171
aF15.853658536585366
aF15.975609756097562
aF16.097560975609756
aF16.21951219512195
aF16.341463414634145
aF16.463414634146343
aF16.585365853658537
aF16.70731707317073
aF16.829268292682926
aF16.951219512195124
aF17.073170731707318
aF17.195121951219512
aF17.317073170731707
aF17.4390243902439
aF17.5609756097561
aF17.682926829268293
aF17.804878048780488
aF17.926829268292682
aF18.048780487804876
aF18.170731707317074
aF18.29268292682927
aF18.414634146341463
aF18.536585365853657
aF18.658536585365855
aF18.78048780487805
aF18.902439024390244
aF19.024390243902438
aF19.146341463414632
aF19.26829268292683
aF19.390243902439025
aF19.51219512195122
aF19.634146341463413
aF19.75609756097561
aF19.878048780487806
aF20.0
aF20.121951219512194
aF20.24390243902439
aF20.365853658536587
aF20.48780487804878
aF20.609756097560975
aF20.73170731707317
aF20.853658536585368
aF20.975609756097562
aF21.097560975609756
aF21.21951219512195
aF21.341463414634145
aF21.463414634146343
aF21.585365853658537
aF21.70731707317073
aF21.829268292682926
aF21.951219512195124
aF22.073170731707318
aF22.195121951219512
aF22.317073170731707
aF22.4390243902439
aF22.5609756097561
aF22.682926829268293
aF22.804878048780488
aF22.926829268292682
aF23.048780487804876
aF23.170731707317074
aF23.29268292682927
aF23.414634146341463
aF23.536585365853657
aF23.658536585365855
aF23.78048780487805
aF23.902439024390244
aF24.024390243902438
aF24.146341463414632
aF24.26829268292683
aF24.390243902439025
aF24.51219512195122
aF24.634146341463413
aF24.75609756097561
aF24.878048780487806
aF25.0
aF25.121951219512194
aF25.24390243902439
aF25.365853658536587
aF25.48780487804878
aF25.609756097560975
aF25.73170731707317
aF25.853658536585368
aF25.975609756097562
aF26.097560975609756
aF26.21951219512195
aF26.341463414634145
aF26.463414634146343
aF26.585365853658537
aF26.70731707317073
aF26.829268292682926
aF26.951219512195124
aF27.073170731707318
aF27.195121951219512
aF27.317073170731707
aF27.4390243902439
aF27.5609756097561
aF27.682926829268293
aF27.804878048780488
aF27.926829268292682
aF28.048780487804876
aF28.170731707317074
aF28.29268292682927
aF28.414634146341463
aF28.536585365853657
aF28.658536585365855
aF28.78048780487805
aF28.902439024390244
aF29.024390243902438
aF29.146341463414632
aF29.26829268292683
aF29.390243902439025
aF29.51219512195122
aF29.634146341463413
aF29.75609756097561
aF29.878048780487806
aF30.0
aF30.121951219512194
aF30.24390243902439
aF30.365853658536587
aF30.48780487804878
aF30.609756097560975
aF30.73170731707317
aF30.853658536585368
aF30.975609756097562
aF31.097560975609756
aF31.21951219512195
aF31.341463414634145
aF31.463414634146343
aF31.585365853658537
aF31.70731707317073
aF31.829268292682926
aF31.951219512195124
aF32.073170731707314
aF32.19512195121951
aF32.31707317073171
aF32.4390243902439
aF32.5609756097561
aF32.68292682926829
aF32.80487804878049
aF32.926829268292686
aF33.048780487804876
aF33.170731707317074
aF33.292682926829265
aF33.41463414634146
aF33.53658536585366
aF33.65853658536585
aF33.78048780487805
aF33.90243902439025
aF34.02439024390244
aF34.146341463414636
aF34.26829268292683
aF34.390243902439025
aF34.51219512195122
aF34.63414634146341
aF34.75609756097561
aF34.8780487804878
aF35.0
aF35.1219512195122
aF35.24390243902439
aF35.36585365853659
aF35.48780487804878
aF35.609756097560975
aF35.73170731707317
aF35.853658536585364
aF35.97560975609756
aF36.09756097560975
aF36.21951219512195
aF36.34146341463415
aF36.46341463414634
aF36.58536585365854
aF36.707317073170735
aF36.829268292682926
aF36.951219512195124
aF37.073170731707314
aF37.19512195121951
aF37.31707317073171
aF37.4390243902439
aF37.5609756097561
aF37.68292682926829
aF37.80487804878049
aF37.926829268292686
aF38.048780487804876
aF38.170731707317074
aF38.292682926829265
aF38.41463414634146
aF38.53658536585366
aF38.65853658536585
aF38.78048780487805
aF38.90243902439025
aF39.02439024390244
aF39.146341463414636
aF39.26829268292683
aF39.390243902439025
aF39.51219512195122
aF39.63414634146341
aF39.75609756097561
aF39.8780487804878
aF40.0
aF40.1219512195122
aF40.24390243902439
aF40.36585365853659
aF40.48780487804878
aF40.609756097560975
aF40.73170731707317
aF40.853658536585364
aF40.97560975609756
aF41.09756097560975
aF41.21951219512195
aF41.34146341463415
aF41.46341463414634
aF41.58536585365854
aF41.707317073170735
aF41.829268292682926
aF41.951219512195124
aF42.073170731707314
aF42.19512195121951
aF42.31707317073171
aF42.4390243902439
aF42.5609756097561
aF42.68292682926829
aF42.80487804878049
aF42.926829268292686
aF43.048780487804876
aF43.170731707317074
aF43.292682926829265
aF43.41463414634146
aF43.53658536585366
aF43.65853658536585
aF43.78048780487805
aF43.90243902439025
aF44.02439024390244
aF44.146341463414636
aF44.26829268292683
aF44.390243902439025
aF44.51219512195122
aF44.63414634146341
aF44.75609756097561
aF44.8780487804878
aF45.0
aF45.1219512195122
aF45.24390243902439
aF45.36585365853659
aF45.48780487804878
aF45.609756097560975
aF45.73170731707317
aF45.853658536585364
aF45.97560975609756
aF46.09756097560975
aF46.21951219512195
aF46.34146341463415
aF46.46341463414634
aF46.58536585365854
aF46.707317073170735
aF46.829268292682926
aF46.951219512195124
aF47.073170731707314
aF47.19512195121951
aF47.31707317073171
aF47.4390243902439
aF47.5609756097561
aF47.68292682926829
aF47.80487804878049
aF47.926829268292686
aF48.048780487804876
aF48.170731707317074
aF48.292682926829265
aF48.41463414634146
aF48.53658536585366
aF48.65853658536585
aF48.78048780487805
aF48.90243902439025
aF49.02439024390244
aF49.146341463414636
aF49.26829268292683
aF49.390243902439025
aF49.51219512195122
aF49.63414634146341
aF49.75609756097561
aF49.8780487804878
aF50.0
aF50.1219512195122
aF50.24390243902439
aF50.36585365853659
aF50.48780487804878
aF50.609756097560975
aF50.73170731707317
aF50.853658536585364
aF50.97560975609756
aF51.09756097560975
aF51.21951219512195
aF51.34146341463415
aF51.46341463414634
aF51.58536585365854
aF51.707317073170735
aF51.829268292682926
aF51.951219512195124
aF52.073170731707314
aF52.19512195121951
aF52.31707317073171
aF52.4390243902439
aF52.5609756097561
aF52.68292682926829
aF52.80487804878049
aF52.926829268292686
aF53.048780487804876
aF53.170731707317074
aF53.292682926829265
aF53.41463414634146
aF53.53658536585366
aF53.65853658536585
aF53.78048780487805
aF53.90243902439025
aF54.02439024390244
aF54.146341463414636
aF54.26829268292683
aF54.390243902439025
aF54.51219512195122
aF54.63414634146341
aF54.75609756097561
aF54.8780487804878
aF55.0
aF55.1219512195122
aF55.24390243902439
aF55.36585365853659
aF55.48780487804878
aF55.609756097560975
aF55.73170731707317
aF55.853658536585364
aF55.97560975609756
aF56.09756097560975
aF56.21951219512195
aF56.34146341463415
aF56.46341463414634
aF56.58536585365854
aF56.707317073170735
aF56.829268292682926
aF56.951219512195124
aF57.073170731707314
aF57.19512195121951
aF57.31707317073171
aF57.4390243902439
aF57.5609756097561
aF57.68292682926829
aF57.80487804878049
aF57.926829268292686
aF58.048780487804876
aF58.170731707317074
aF58.292682926829265
aF58.41463414634146
aF58.53658536585366
aF58.65853658536585
aF58.78048780487805
aF58.90243902439025
aF59.02439024390244
aF59.146341463414636
aF59.26829268292683
aF59.390243902439025
aF59.51219512195122
aF59.63414634146341
aF59.75609756097561
aF59.8780487804878
aF60.0
aF60.1219512195122
aF60.24390243902439
aF60.36585365853659
aF60.48780487804878
aF60.609756097560975
aF60.73170731707317
aF60.853658536585364
aF60.97560975609756
aF61.09756097560975
aF61.21951219512195
aF61.34146341463415
aF61.46341463414634
aF61.58536585365854
aF61.707317073170735
aF61.829268292682926
aF61.951219512195124
aF62.073170731707314
aF62.19512195121951
aF62.31707317073171
aF62.4390243902439
aF62.5609756097561
aF62.68292682926829
aF62.80487804878049
aF62.926829268292686
aF63.048780487804876
aF63.170731707317074
aF63.292682926829265
aF63.41463414634146
aF63.53658536585366
aF63.65853658536585
aF63.78048780487805
aF63.90243902439025
aF64.02439024390245
aF64.14634146341463
aF64.26829268292683
aF64.39024390243902
aF64.51219512195122
aF64.63414634146342
aF64.7560975609756
aF64.8780487804878
aF65.0
aF65.1219512195122
aF65.2439024390244
aF65.36585365853658
aF65.48780487804878
aF65.60975609756098
aF65.73170731707317
aF65.85365853658537
aF65.97560975609755
aF66.09756097560975
aF66.21951219512195
aF66.34146341463415
aF66.46341463414635
aF66.58536585365853
aF66.70731707317073
aF66.82926829268293
aF66.95121951219512
aF67.07317073170732
aF67.1951219512195
aF67.3170731707317
aF67.4390243902439
aF67.5609756097561
aF67.6829268292683
aF67.8048780487805
aF67.92682926829268
aF68.04878048780488
aF68.17073170731707
aF68.29268292682927
aF68.41463414634147
aF68.53658536585365
aF68.65853658536585
aF68.78048780487805
aF68.90243902439025
aF69.02439024390245
aF69.14634146341463
aF69.26829268292683
aF69.39024390243902
aF69.51219512195122
aF69.63414634146342
aF69.7560975609756
aF69.8780487804878
aF70.0
aF70.1219512195122
aF70.2439024390244
aF70.36585365853658
aF70.48780487804878
aF70.60975609756098
aF70.73170731707317
aF70.85365853658537
aF70.97560975609755
aF71.09756097560975
aF71.21951219512195
aF71.34146341463415
aF71.46341463414635
aF71.58536585365853
aF71.70731707317073
aF71.82926829268293
aF71.95121951219512
aF72.07317073170732
aF72.1951219512195
aF72.3170731707317
aF72.4390243902439
aF72.5609756097561
aF72.6829268292683
aF72.8048780487805
aF72.92682926829268
aF73.04878048780488
aF73.17073170731707
aF73.29268292682927
aF73.41463414634147
aF73.53658536585365
aF73.65853658536585
aF73.78048780487805
aF73.90243902439025
aF74.02439024390245
aF74.14634146341463
aF74.26829268292683
aF74.39024390243902
aF74.51219512195122
aF74.63414634146342
aF74.7560975609756
aF74.8780487804878
aF75.0
aF75.1219512195122
aF75.2439024390244
aF75.36585365853658
aF75.48780487804878
aF75.60975609756098
aF75.73170731707317
aF75.85365853658537
aF75.97560975609755
aF76.09756097560975
aF76.21951219512195
aF76.34146341463415
aF76.46341463414635
aF76.58536585365853
aF76.70731707317073
aF76.82926829268293
aF76.95121951219512
aF77.07317073170732
aF77.1951219512195
aF77.3170731707317
aF77.4390243902439
aF77.5609756097561
aF77.6829268292683
aF77.8048780487805
aF77.92682926829268
aF78.04878048780488
aF78.17073170731707
aF78.29268292682927
aF78.41463414634147
aF78.53658536585365
aF78.65853658536585
aF78.78048780487805
aF78.90243902439025
aF79.02439024390245
aF79.14634146341463
aF79.26829268292683
aF79.39024390243902
aF79.51219512195122
aF79.63414634146342
aF79.7560975609756
aF79.8780487804878
aF80.0
aF80.1219512195122
aF80.2439024390244
aF80.36585365853658
aF80.48780487804878
aF80.60975609756098
aF80.73170731707317
aF80.85365853658537
aF80.97560975609755
aF81.09756097560975
aF81.21951219512195
aF81.34146341463415
aF81.46341463414635
aF81.58536585365853
aF81.70731707317073
aF81.82926829268293
aF81.95121951219512
aF82.07317073170732
aF82.1951219512195
aF82.3170731707317
aF82.4390243902439
aF82.5609756097561
aF82.6829268292683
aF82.8048780487805
aF82.92682926829268
aF83.04878048780488
aF83.17073170731707
aF83.29268292682927
aF83.41463414634147
aF83.53658536585365
aF83.65853658536585
aF83.78048780487805
aF83.90243902439025
aF84.02439024390245
aF84.14634146341463
aF84.26829268292683
aF84.39024390243902
aF84.51219512195122
aF84.63414634146342
aF84.7560975609756
aF84.8780487804878
aF85.0
aF85.1219512195122
aF85.2439024390244
aF85.36585365853658
aF85.48780487804878
aF85.60975609756098
aF85.73170731707317
aF85.85365853658537
aF85.97560975609755
aF86.09756097560975
aF86.21951219512195
aF86.34146341463415
aF86.46341463414635
aF86.58536585365853
aF86.70731707317073
aF86.82926829268293
aF86.95121951219512
aF87.07317073170732
aF87.1951219512195
aF87.3170731707317
aF87.4390243902439
aF87.5609756097561
aF87.6829268292683
aF87.8048780487805
aF87.92682926829268
aF88.04878048780488
aF88.17073170731707
aF88.29268292682927
aF88.41463414634147
aF88.53658536585365
aF88.65853658536585
aF88.78048780487805
aF88.90243902439025
aF89.02439024390245
aF89.14634146341463
aF89.26829268292683
aF89.39024390243902
aF89.51219512195122
aF89.63414634146342
aF89.7560975609756
aF89.8780487804878
aF90.0
aF90.1219512195122
aF90.2439024390244
aF90.36585365853658
aF90.48780487804878
aF90.60975609756098
aF90.73170731707317
aF90.85365853658537
aF90.97560975609755
aF91.09756097560975
aF91.21951219512195
aF91.34146341463415
aF91.46341463414635
aF91.58536585365853
aF91.70731707317073
aF91.82926829268293
aF91.95121951219512
aF92.07317073170732
aF92.1951219512195
aF92.3170731707317
aF92.4390243902439
aF92.5609756097561
aF92.6829268292683
aF92.8048780487805
aF92.92682926829268
aF93.04878048780488
aF93.17073170731707
aF93.29268292682927
aF93.41463414634147
aF93.53658536585365
aF93.65853658536585
aF93.78048780487805
aF93.90243902439025
aF94.02439024390245
aF94.14634146341463
aF94.26829268292683
aF94.39024390243902
aF94.51219512195122
aF94.63414634146342
aF94.7560975609756
aF94.8780487804878
aF95.0
aF95.1219512195122
aF95.2439024390244
aF95.36585365853658
aF95.48780487804878
aF95.60975609756098
aF95.73170731707317
aF95.85365853658537
aF95.97560975609755
aF96.09756097560975
aF96.21951219512195
aF96.34146341463415
aF96.46341463414635
aF96.58536585365853
aF96.70731707317073
aF96.82926829268293
aF96.95121951219512
aF97.07317073170732
aF97.1951219512195
aF97.3170731707317
aF97.4390243902439
aF97.5609756097561
aF97.6829268292683
aF97.8048780487805
aF97.92682926829268
aF98.04878048780488
aF98.17073170731707
aF98.29268292682927
aF98.41463414634147
aF98.53658536585365
aF98.65853658536585
aF98.78048780487805
aF98.90243902439025
aF99.02439024390245
aF99.14634146341463
aF99.26829268292683
aF99.39024390243902
aF99.51219512195122
aF99.63414634146342
aF99.7560975609756
aF99.8780487804878
aF100.0
aF100.1219512195122
aF100.2439024390244
aF100.36585365853658
aF100.48780487804878
aF100.60975609756098
aF100.73170731707317
aF100.85365853658537
aF100.97560975609755
aF101.09756097560975
aF101.21951219512195
aF101.34146341463415
aF101.46341463414635
aF101.58536585365853
aF101.70731707317073
aF101.82926829268293
aF101.95121951219512
aF102.07317073170732
aF102.1951219512195
aF102.3170731707317
aF102.4390243902439
aF102.5609756097561
aF102.6829268292683
aF102.8048780487805
aF102.92682926829268
aF103.04878048780488
aF103.17073170731707
aF103.29268292682927
aF103.41463414634147
aF103.53658536585365
aF103.65853658536585
aF103.78048780487805
aF103.90243902439025
aF104.02439024390245
aF104.14634146341463
aF104.26829268292683
aF104.39024390243902
aF104.51219512195122
aF104.63414634146342
aF104.7560975609756
aF104.8780487804878
aF105.0
aF105.1219512195122
aF105.2439024390244
aF105.36585365853658
aF105.48780487804878
aF105.60975609756098
aF105.73170731707317
aF105.85365853658537
aF105.97560975609755
aF106.09756097560975
aF106.21951219512195
aF106.34146341463415
aF106.46341463414635
aF106.58536585365853
aF106.70731707317073
aF106.82926829268293
aF106.95121951219512
aF107.07317073170732
aF107.1951219512195
aF107.3170731707317
aF107.4390243902439
aF107.5609756097561
aF107.6829268292683
aF107.8048780487805
aF107.92682926829268
aF108.04878048780488
aF108.17073170731707
aF108.29268292682927
aF108.41463414634147
aF108.53658536585365
aF108.65853658536585
aF108.78048780487805
aF108.90243902439025
aF109.02439024390245
aF109.14634146341463
aF109.26829268292683
aF109.39024390243902
aF109.51219512195122
aF109.63414634146342
aF109.7560975609756
aF109.8780487804878
aF110.0
aF110.1219512195122
aF110.2439024390244
aF110.36585365853658
aF110.48780487804878
aF110.60975609756098
aF110.73170731707317
aF110.85365853658537
aF110.97560975609755
aF111.09756097560975
aF111.21951219512195
aF111.34146341463415
aF111.46341463414635
aF111.58536585365853
aF111.70731707317073
aF111.82926829268293
aF111.95121951219512
aF112.07317073170732
aF112.1951219512195
aF112.3170731707317
aF112.4390243902439
aF112.5609756097561
aF112.6829268292683
aF112.8048780487805
aF112.92682926829268
aF113.04878048780488
aF113.17073170731707
aF113.29268292682927
aF113.41463414634147
aF113.53658536585365
aF113.65853658536585
aF113.78048780487805
aF113.90243902439025
aF114.02439024390245
aF114.14634146341463
aF114.26829268292683
aF114.39024390243902
aF114.51219512195122
aF114.63414634146342
aF114.7560975609756
aF114.8780487804878
aF115.0
aF115.1219512195122
aF115.2439024390244
aF115.36585365853658
aF115.48780487804878
aF115.60975609756098
aF115.73170731707317
aF115.85365853658537
aF115.97560975609755
aF116.09756097560975
aF116.21951219512195
aF116.34146341463415
aF116.46341463414635
aF116.58536585365853
aF116.70731707317073
aF116.82926829268293
aF116.95121951219512
aF117.07317073170732
aF117.1951219512195
aF117.3170731707317
aF117.4390243902439
aF117.5609756097561
aF117.6829268292683
aF117.8048780487805
aF117.92682926829268
aF118.04878048780488
aF118.17073170731707
aF118.29268292682927
aF118.41463414634147
aF118.53658536585365
aF118.65853658536585
aF118.78048780487805
aF118.90243902439025
aF119.02439024390245
aF119.14634146341463
aF119.26829268292683
aF119.39024390243902
aF119.51219512195122
aF119.63414634146342
aF119.7560975609756
aF119.8780487804878
aF120.0
aF120.1219512195122
aF120.2439024390244
aF120.36585365853658
aF120.48780487804878
aF120.60975609756098
aF120.73170731707317
aF120.85365853658537
aF120.97560975609755
aF121.09756097560975
aF121.21951219512195
aF121.34146341463415
aF121.46341463414635
aF121.58536585365853
aF121.70731707317073
aF121.82926829268293
aF121.95121951219512
aF122.07317073170732
aF122.1951219512195
aF122.3170731707317
aF122.4390243902439
aF122.5609756097561
aF122.6829268292683
aF122.8048780487805
aF122.92682926829268
aF123.04878048780488
aF123.17073170731707
aF123.29268292682927
aF123.41463414634147
aF123.53658536585365
aF123.65853658536585
aF123.78048780487805
aF123.90243902439025
aF124.02439024390245
aF124.14634146341463
aF124.26829268292683
aF124.39024390243902
aF124.51219512195122
aF124.63414634146342
aF124.7560975609756
aF124.8780487804878
aF125.0
aF125.1219512195122
aF125.2439024390244
aF125.36585365853658
aF125.48780487804878
aF125.60975609756098
aF125.73170731707317
aF125.85365853658537
aF125.97560975609755
aF126.09756097560975
aF126.21951219512195
aF126.34146341463415
aF126.46341463414635
aF126.58536585365853
aF126.70731707317073
aF126.82926829268293
aF126.95121951219512
aF127.07317073170732
aF127.1951219512195
aF127.3170731707317
aF127.4390243902439
aF127.5609756097561
aF127.6829268292683
aF127.8048780487805
aF127.92682926829268
aF128.0487804878049
aF128.17073170731706
aF128.29268292682926
aF128.41463414634146
aF128.53658536585365
aF128.65853658536585
aF128.78048780487805
aF128.90243902439025
aF129.02439024390245
aF129.14634146341464
aF129.26829268292684
aF129.390243902439
aF129.5121951219512
aF129.6341463414634
aF129.7560975609756
aF129.8780487804878
aF130.0
aF130.1219512195122
aF130.2439024390244
aF130.3658536585366
aF130.4878048780488
aF130.609756097561
aF130.73170731707316
aF130.85365853658536
aF130.97560975609755
aF131.09756097560975
aF131.21951219512195
aF131.34146341463415
aF131.46341463414635
aF131.58536585365854
aF131.70731707317074
aF131.82926829268294
aF131.9512195121951
aF132.0731707317073
aF132.1951219512195
aF132.3170731707317
aF132.4390243902439
aF132.5609756097561
aF132.6829268292683
aF132.8048780487805
aF132.9268292682927
aF133.0487804878049
aF133.17073170731706
aF133.29268292682926
aF133.41463414634146
aF133.53658536585365
aF133.65853658536585
aF133.78048780487805
aF133.90243902439025
aF134.02439024390245
aF134.14634146341464
aF134.26829268292684
aF134.390243902439
aF134.5121951219512
aF134.6341463414634
aF134.7560975609756
aF134.8780487804878
aF135.0
aF135.1219512195122
aF135.2439024390244
aF135.3658536585366
aF135.4878048780488
aF135.609756097561
aF135.73170731707316
aF135.85365853658536
aF135.97560975609755
aF136.09756097560975
aF136.21951219512195
aF136.34146341463415
aF136.46341463414635
aF136.58536585365854
aF136.70731707317074
aF136.82926829268294
aF136.9512195121951
aF137.0731707317073
aF137.1951219512195
aF137.3170731707317
aF137.4390243902439
aF137.5609756097561
aF137.6829268292683
aF137.8048780487805
aF137.9268292682927
aF138.0487804878049
aF138.17073170731706
aF138.29268292682926
aF138.41463414634146
aF138.53658536585365
aF138.65853658536585
aF138.78048780487805
aF138.90243902439025
aF139.02439024390245
aF139.14634146341464
aF139.26829268292684
aF139.390243902439
aF139.5121951219512
aF139.6341463414634
aF139.7560975609756
aF139.8780487804878
aF140.0
aF140.1219512195122
aF140.2439024390244
aF140.3658536585366
aF140.4878048780488
aF140.609756097561
aF140.73170731707316
aF140.85365853658536
aF140.97560975609755
aF141.09756097560975
aF141.21951219512195
aF141.34146341463415
aF141.46341463414635
aF141.58536585365854
aF141.70731707317074
aF141.82926829268294
aF141.9512195121951
aF142.0731707317073
aF142.1951219512195
aF142.3170731707317
aF142.4390243902439
aF142.5609756097561
aF142.6829268292683
aF142.8048780487805
aF142.9268292682927
aF143.0487804878049
aF143.17073170731706
aF143.29268292682926
aF143.41463414634146
aF143.53658536585365
aF143.65853658536585
aF143.78048780487805
aF143.90243902439025
aF144.02439024390245
aF144.14634146341464
aF144.26829268292684
aF144.390243902439
aF144.5121951219512
aF144.6341463414634
aF144.7560975609756
aF144.8780487804878
aF145.0
aF145.1219512195122
aF145.2439024390244
aF145.3658536585366
aF145.4878048780488
aF145.609756097561
aF145.73170731707316
aF145.85365853658536
aF145.97560975609755
aF146.09756097560975
aF146.21951219512195
aF146.34146341463415
aF146.46341463414635
aF146.58536585365854
aF146.70731707317074
aF146.82926829268294
aF146.9512195121951
aF147.0731707317073
aF147.1951219512195
aF147.3170731707317
aF147.4390243902439
aF147.5609756097561
aF147.6829268292683
aF147.8048780487805
aF147.9268292682927
aF148.0487804878049
aF148.17073170731706
aF148.29268292682926
aF148.41463414634146
aF148.53658536585365
aF148.65853658536585
aF148.78048780487805
aF148.90243902439025
aF149.02439024390245
aF149.14634146341464
aF149.26829268292684
aF149.390243902439
aF149.5121951219512
aF149.6341463414634
aF149.7560975609756
aF149.8780487804878
aF150.0
aF150.1219512195122
aF150.2439024390244
aF150.3658536585366
aF150.4878048780488
aF150.609756097561
aF150.73170731707316
aF150.85365853658536
aF150.97560975609755
aF151.09756097560975
aF151.21951219512195
aF151.34146341463415
aF151.46341463414635
aF151.58536585365854
aF151.70731707317074
aF151.82926829268294
aF151.9512195121951
aF152.0731707317073
aF152.1951219512195
aF152.3170731707317
aF152.4390243902439
aF152.5609756097561
aF152.6829268292683
aF152.8048780487805
aF152.9268292682927
aF153.0487804878049
aF153.17073170731706
aF153.29268292682926
aF153.41463414634146
aF153.53658536585365
aF153.65853658536585
aF153.78048780487805
aF153.90243902439025
aF154.02439024390245
aF154.14634146341464
aF154.26829268292684
aF154.390243902439
aF154.5121951219512
aF154.6341463414634
aF154.7560975609756
aF154.8780487804878
aF155.0
aF155.1219512195122
aF155.2439024390244
aF155.3658536585366
aF155.4878048780488
aF155.609756097561
aF155.73170731707316
aF155.85365853658536
aF155.97560975609755
aF156.09756097560975
aF156.21951219512195
aF156.34146341463415
aF156.46341463414635
aF156.58536585365854
aF156.70731707317074
aF156.82926829268294
aF156.9512195121951
aF157.0731707317073
aF157.1951219512195
aF157.3170731707317
aF157.4390243902439
aF157.5609756097561
aF157.6829268292683
aF157.8048780487805
aF157.9268292682927
aF158.0487804878049
aF158.17073170731706
aF158.29268292682926
aF158.41463414634146
aF158.53658536585365
aF158.65853658536585
aF158.78048780487805
aF158.90243902439025
aF159.02439024390245
aF159.14634146341464
aF159.26829268292684
aF159.390243902439
aF159.5121951219512
aF159.6341463414634
aF159.7560975609756
aF159.8780487804878
aF160.0
aF160.1219512195122
aF160.2439024390244
aF160.3658536585366
aF160.4878048780488
aF160.609756097561
aF160.73170731707316
aF160.85365853658536
aF160.97560975609755
aF161.09756097560975
aF161.21951219512195
aF161.34146341463415
aF161.46341463414635
aF161.58536585365854
aF161.70731707317074
aF161.82926829268294
aF161.9512195121951
aF162.0731707317073
aF162.1951219512195
aF162.3170731707317
aF162.4390243902439
aF162.5609756097561
aF162.6829268292683
aF162.8048780487805
aF162.9268292682927
aF163.0487804878049
aF163.17073170731706
aF163.29268292682926
aF163.41463414634146
aF163.53658536585365
aF163.65853658536585
aF163.78048780487805
aF163.90243902439025
aF164.02439024390245
aF164.14634146341464
aF164.26829268292684
aF164.390243902439
aF164.5121951219512
aF164.6341463414634
aF164.7560975609756
aF164.8780487804878
aF165.0
aF165.1219512195122
aF165.2439024390244
aF165.3658536585366
aF165.4878048780488
aF165.609756097561
aF165.73170731707316
aF165.85365853658536
aF165.97560975609755
aF166.09756097560975
aF166.21951219512195
aF166.34146341463415
aF166.46341463414635
aF166.58536585365854
aF166.70731707317074
aF166.82926829268294
aF166.9512195121951
aF167.0731707317073
aF167.1951219512195
aF167.3170731707317
aF167.4390243902439
aF167.5609756097561
aF167.6829268292683
aF167.8048780487805
aF167.9268292682927
aF168.0487804878049
aF168.17073170731706
aF168.29268292682926
aF168.41463414634146
aF168.53658536585365
aF168.65853658536585
aF168.78048780487805
aF168.90243902439025
aF169.02439024390245
aF169.14634146341464
aF169.26829268292684
aF169.390243902439
aF169.5121951219512
aF169.6341463414634
aF169.7560975609756
aF169.8780487804878
aF170.0
aF170.1219512195122
aF170.2439024390244
aF170.3658536585366
aF170.4878048780488
aF170.609756097561
aF170.73170731707316
aF170.85365853658536
aF170.97560975609755
aF171.09756097560975
aF171.21951219512195
aF171.34146341463415
aF171.46341463414635
aF171.58536585365854
aF171.70731707317074
aF171.82926829268294
aF171.9512195121951
aF172.0731707317073
aF172.1951219512195
aF172.3170731707317
aF172.4390243902439
aF172.5609756097561
aF172.6829268292683
aF172.8048780487805
aF172.9268292682927
aF173.0487804878049
aF173.17073170731706
aF173.29268292682926
aF173.41463414634146
aF173.53658536585365
aF173.65853658536585
aF173.78048780487805
aF173.90243902439025
aF174.02439024390245
aF174.14634146341464
aF174.26829268292684
aF174.390243902439
aF174.5121951219512
aF174.6341463414634
aF174.7560975609756
aF174.8780487804878
aF175.0
aF175.1219512195122
aF175.2439024390244
aF175.3658536585366
aF175.4878048780488
aF175.609756097561
aF175.73170731707316
aF175.85365853658536
aF175.97560975609755
aF176.09756097560975
aF176.21951219512195
aF176.34146341463415
aF176.46341463414635
aF176.58536585365854
aF176.70731707317074
aF176.82926829268294
aF176.9512195121951
aF177.0731707317073
aF177.1951219512195
aF177.3170731707317
aF177.4390243902439
aF177.5609756097561
aF177.6829268292683
aF177.8048780487805
aF177.9268292682927
aF178.0487804878049
aF178.17073170731706
aF178.29268292682926
aF178.41463414634146
aF178.53658536585365
aF178.65853658536585
aF178.78048780487805
aF178.90243902439025
aF179.02439024390245
aF179.14634146341464
aF179.26829268292684
aF179.390243902439
aF179.5121951219512
aF179.6341463414634
aF179.7560975609756
aF179.8780487804878
aF180.0
aF180.1219512195122
aF180.2439024390244
aF180.3658536585366
aF180.4878048780488
aF180.609756097561
aF180.73170731707316
aF180.85365853658536
aF180.97560975609755
aF181.09756097560975
aF181.21951219512195
aF181.34146341463415
aF181.46341463414635
aF181.58536585365854
aF181.70731707317074
aF181.82926829268294
aF181.9512195121951
aF182.0731707317073
aF182.1951219512195
aF182.3170731707317
aF182.4390243902439
aF182.5609756097561
aF182.6829268292683
aF182.8048780487805
aF182.9268292682927
aF183.0487804878049
aF183.17073170731706
aF183.29268292682926
aF183.41463414634146
aF183.53658536585365
aF183.65853658536585
aF183.78048780487805
aF183.90243902439025
aF184.02439024390245
aF184.14634146341464
aF184.26829268292684
aF184.390243902439
aF184.5121951219512
aF184.6341463414634
aF184.7560975609756
aF184.8780487804878
aF185.0
aF185.1219512195122
aF185.2439024390244
aF185.3658536585366
aF185.4878048780488
aF185.609756097561
aF185.73170731707316
aF185.85365853658536
aF185.97560975609755
aF186.09756097560975
aF186.21951219512195
aF186.34146341463415
aF186.46341463414635
aF186.58536585365854
aF186.70731707317074
aF186.82926829268294
aF186.9512195121951
aF187.0731707317073
aF187.1951219512195
aF187.3170731707317
aF187.4390243902439
aF187.5609756097561
aF187.6829268292683
aF187.8048780487805
aF187.9268292682927
aF188.0487804878049
aF188.17073170731706
aF188.29268292682926
aF188.41463414634146
aF188.53658536585365
aF188.65853658536585
aF188.78048780487805
aF188.90243902439025
aF189.02439024390245
aF189.14634146341464
aF189.26829268292684
aF189.390243902439
aF189.5121951219512
aF189.6341463414634
aF189.7560975609756
aF189.8780487804878
aF190.0
aF190.1219512195122
aF190.2439024390244
aF190.3658536585366
aF190.4878048780488
aF190.609756097561
aF190.73170731707316
aF190.85365853658536
aF190.97560975609755
aF191.09756097560975
aF191.21951219512195
aF191.34146341463415
aF191.46341463414635
aF191.58536585365854
aF191.70731707317074
aF191.82926829268294
aF191.9512195121951
aF192.0731707317073
aF192.1951219512195
aF192.3170731707317
aF192.4390243902439
aF192.5609756097561
aF192.6829268292683
aF192.8048780487805
aF192.9268292682927
aF193.0487804878049
aF193.17073170731706
aF193.29268292682926
aF193.41463414634146
aF193.53658536585365
aF193.65853658536585
aF193.78048780487805
aF193.90243902439025
aF194.02439024390245
aF194.14634146341464
aF194.26829268292684
aF194.390243902439
aF194.5121951219512
aF194.6341463414634
aF194.7560975609756
aF194.8780487804878
aF195.0
aF195.1219512195122
aF195.2439024390244
aF195.3658536585366
aF195.4878048780488
aF195.609756097561
aF195.73170731707316
aF195.85365853658536
aF195.97560975609755
aF196.09756097560975
aF196.21951219512195
aF196.34146341463415
aF196.46341463414635
aF196.58536585365854
aF196.70731707317074
aF196.82926829268294
aF196.9512195121951
aF197.0731707317073
aF197.1951219512195
aF197.3170731707317
aF197.4390243902439
aF197.5609756097561
aF197.6829268292683
aF197.8048780487805
aF197.9268292682927
aF198.0487804878049
aF198.17073170731706
aF198.29268292682926
aF198.41463414634146
aF198.53658536585365
aF198.65853658536585
aF198.78048780487805
aF198.90243902439025
aF199.02439024390245
aF199.14634146341464
aF199.26829268292684
aF199.390243902439
aF199.5121951219512
aF199.6341463414634
aF199.7560975609756
aF199.8780487804878
atp27
tp28
Rp29
aa(lp30
S'loss'
p31
ag0
(g23
g24
(S'SoftmaxWithLoss'
p32
(lp33
F0.688816
aF0.664066
aF0.258616
aF0.407956
aF0.530248
aF0.07422
aF0.0549767
aF0.0204831
aF0.0309801
aF0.0615354
aF0.0559497
aF0.0373129
aF0.0331066
aF0.0156384
aF0.0202956
aF0.0156939
aF0.0476265
aF0.00431302
aF0.0503802
aF0.00945672
aF0.016013
aF0.000512389
aF0.0634875
aF0.0742457
aF0.0961763
aF0.0676455
aF0.0231224
aF0.0135734
aF0.00109776
aF0.0108275
aF0.00670596
aF0.0343787
aF0.00117747
aF0.0159709
aF0.0465045
aF0.0323075
aF0.00747622
aF7.67905e-05
aF0.00882461
aF0.0337609
aF0.0120903
aF0.00569419
aF0.011376
aF0.0134485
aF0.0135223
aF0.027431
aF0.00577619
aF3.58872e-05
aF0.00409628
aF0.000976991
aF0.0141658
aF0.0308532
aF0.0103962
aF0.00332403
aF0.00514333
aF0.00979955
aF0.00882468
aF0.00789239
aF0.0169422
aF0.0304754
aF0.0140917
aF0.0201954
aF0.00756386
aF0.0120834
aF0.0144059
aF0.0183793
aF0.130374
aF0.0199123
aF0.042113
aF0.00358314
aF0.00412901
aF0.00697929
aF0.0266817
aF0.00247277
aF0.0355507
aF0.0640996
aF0.0267805
aF0.00690437
aF0.00253865
aF0.00960809
aF0.0241241
aF0.0160986
aF0.0115522
aF0.0233122
aF0.00706719
aF0.0198653
aF0.00556518
aF0.00131891
aF0.00340098
aF0.0124344
aF0.00389072
aF0.0121054
aF0.0130924
aF0.00613331
aF0.0176245
aF0.00346429
aF0.0120415
aF0.00382838
aF0.000121785
aF0.0115603
aF0.0144238
aF0.00887428
aF0.00649026
aF0.0044742
aF0.00821151
aF0.00532888
aF0.0155257
aF0.0692012
aF0.005421
aF0.00614834
aF0.0139072
aF0.00773361
aF0.00813948
aF0.00983209
aF0.00211233
aF0.00798216
aF0.00471438
aF0.00349804
aF0.000189819
aF0.000371821
aF0.0030969
aF0.0103442
aF0.0691563
aF0.0045115
aF0.00875031
aF0.00620416
aF0.0118889
aF0.000680266
aF0.00218423
aF0.0208354
aF0.00879777
aF2.26112e-05
aF0.00139329
aF0.00161423
aF0.00445563
aF0.0110448
aF0.00295858
aF0.00437514
aF0.000284744
aF0.00247432
aF0.0122953
aF0.00474477
aF0.00523324
aF0.00952493
aF0.00212171
aF0.00582552
aF0.00645636
aF0.00772987
aF0.0116316
aF0.0058055
aF0.00237705
aF0.000462584
aF0.000111382
aF0.00815152
aF0.0037823
aF0.00536634
aF0.00142239
aF0.0630561
aF0.00443102
aF0.000230722
aF0.00656498
aF0.0151885
aF0.00743218
aF1.60493e-05
aF0.00202711
aF0.000607528
aF0.00243289
aF0.00122362
aF0.00033012
aF0.00851693
aF0.0109171
aF0.0159008
aF0.000997332
aF0.000875724
aF7.87637e-05
aF0.00296821
aF0.00428919
aF0.000124359
aF0.000688978
aF0.000352544
aF9.25668e-05
aF0.00380366
aF0.00548352
aF0.00333429
aF0.00119421
aF0.00154998
aF0.00315231
aF0.00610147
aF0.00176946
aF0.000664689
aF0.00741811
aF0.00200209
aF0.0118846
aF0.000308063
aF0.00291015
aF0.00189046
aF0.00525639
aF0.00784721
aF0.000244822
aF0.000311586
aF0.000491586
aF0.0110634
aF0.000463392
aF0.0293382
aF3.66792e-05
aF0.00840792
aF0.0105782
aF0.00462475
aF0.00177519
aF0.000879998
aF0.015057
aF0.0165383
aF0.0265995
aF0.00194138
aF0.00877661
aF0.000117661
aF0.00634867
aF0.00505439
aF0.000179851
aF0.000106304
aF0.000390695
aF3.62955e-06
aF0.000732414
aF0.00169869
aF6.35608e-05
aF5.10602e-05
aF0.000194142
aF0.00901966
aF0.0015401
aF0.000163192
aF0.00364031
aF0.000233925
aF0.0180824
aF0.0021472
aF0.00353846
aF0.000985266
aF0.0001564
aF0.0402835
aF0.00962995
aF0.00608782
aF0.00221652
aF1.49955e-05
aF0.00376201
aF0.000712105
aF0.000516458
aF0.000115398
aF0.00304709
aF4.46889e-05
aF0.000410924
aF7.00211e-05
aF2.22094e-06
aF0.00151959
aF0.00933771
aF0.000774724
aF0.00144816
aF0.000333754
aF8.81092e-05
aF0.00261929
aF0.000439911
aF0.000534476
aF0.000143223
aF0.0044553
aF6.07032e-05
aF0.000483833
aF0.000631268
aF4.55472e-06
aF0.00030732
aF1.83899e-05
aF0.00562115
aF0.00176072
aF9.83126e-06
aF0.000897506
aF0.000489169
aF0.000509571
aF2.10163e-05
aF0.00167542
aF0.00527164
aF0.000380632
aF0.0016046
aF0.000195873
aF0.00336476
aF0.00137625
aF0.000759853
aF0.00185697
aF0.000785264
aF0.000132475
aF0.000159104
aF0.000805618
aF0.00116687
aF9.35964e-05
aF6.84123e-05
aF1.73473e-05
aF0.000948981
aF0.00341188
aF9.75628e-05
aF0.00632815
aF1.14651e-06
aF0.000236782
aF0.0205647
aF3.92092e-07
aF0.000314648
aF0.00213801
aF0.000820322
aF4.10165e-06
aF0.000252233
aF0.0010621
aF5.57891e-06
aF0.000773887
aF7.7767e-07
aF6.36178e-05
aF5.71934e-06
aF1.24579e-05
aF0.000634957
aF0.000607435
aF4.72292e-05
aF2.24879e-05
aF0.000224804
aF0.000948178
aF0.000769968
aF0.000348594
aF0.00079529
aF7.91193e-05
aF0.00348314
aF0.0108915
aF2.28652e-06
aF0.000579699
aF0.000529398
aF0.00132227
aF0.000109305
aF0.0146349
aF0.00537184
aF0.00293061
aF0.00443514
aF0.00803482
aF0.00217747
aF8.55738e-05
aF0.000275222
aF8.06713e-05
aF0.00367566
aF0.00042126
aF5.33385e-06
aF0.000489453
aF0.00221769
aF0.0030952
aF8.72695e-05
aF0.00173973
aF2.94944e-05
aF0.000787947
aF0.00144543
aF9.41555e-05
aF0.00106506
aF3.68806e-07
aF2.01166e-07
aF0.000388629
aF0.000229875
aF3.73035e-05
aF3.57586e-05
aF0.000140037
aF0.000664208
aF0.000464249
aF0.000178239
aF0.000873271
aF0.000623231
aF0.00406231
aF3.14066e-05
aF5.86735e-08
aF0.000219477
aF0.000664049
aF0.002679
aF0.000531227
aF1.09764e-05
aF1.5107e-06
aF2.79397e-09
aF0.000559213
aF3.87074e-05
aF3.19099e-05
aF4.48895e-06
aF6.97434e-05
aF0.000125523
aF0.000241857
aF6.90154e-05
aF1.22935e-07
aF0.000173047
aF0.000702779
aF0.00391638
aF8.34497e-05
aF0.000219875
aF4.23763e-06
aF0.00325816
aF1.63486e-05
aF1.34055e-05
aF3.53907e-07
aF4.89516e-06
aF3.23468e-06
aF5.7991e-05
aF2.32581e-05
aF4.20005e-05
aF1.00743e-05
aF0.000198189
aF0.0754214
aF0.000391999
aF5.75044e-05
aF0.0043324
aF0.00260359
aF0.000192724
aF0.0087212
aF0.000245551
aF0.00407963
aF0.000279395
aF0.00145892
aF0.00124038
aF0.000121306
aF0.0127622
aF2.83825e-06
aF0.00473091
aF0.000170537
aF0.000762287
aF3.87342e-05
aF0.00583425
aF0.000111893
aF1.55585e-05
aF9.54632e-07
aF5.40169e-08
aF0.000154582
aF0.00561392
aF0.000573642
aF0.000190001
aF0.00533974
aF0.000337949
aF0.00313708
aF0.000893567
aF1.40265e-06
aF0.000112989
aF0.00885872
aF4.84289e-08
aF6.99589e-05
aF2.53772e-06
aF5.16471e-06
aF0.00548262
aF8.20518e-07
aF0.00194048
aF0.000139863
aF2.44356e-06
aF0.000518993
aF0.0001909
aF7.09722e-05
aF1.59737e-05
aF0.000106554
aF0.000798533
aF0.000165959
aF0.000755207
aF0.00182667
aF4.48962e-05
aF0.00306306
aF2.61405e-05
aF0.000897001
aF0.00174833
aF0.00700097
aF0.00012805
aF0.00131358
aF0.00281622
aF0.000257292
aF7.90755e-05
aF1.86828e-06
aF0.000301052
aF0.00140145
aF8.85638e-05
aF0.00160052
aF0.000346371
aF0.00898298
aF0.00570465
aF6.09556e-05
aF6.4807e-05
aF0.016458
aF0.00340147
aF5.23393e-06
aF4.63854e-05
aF0.000133748
aF4.91146e-06
aF3.36783e-05
aF1.99199e-05
aF0.00154205
aF1.86497e-05
aF1.41527e-06
aF0.00200495
aF0.000435241
aF8.67658e-05
aF3.9795e-06
aF0.000177668
aF0.000430204
aF0.00088845
aF0.000349193
aF0.000882666
aF0.000385648
aF0.000204266
aF1.58613e-06
aF5.60564e-05
aF0.0020222
aF0.000415287
aF8.47964e-05
aF0.000392421
aF0.000562792
aF5.0518e-05
aF0.0
aF0.00212693
aF3.33771e-05
aF0.00125261
aF9.31323e-10
aF5.65913e-05
aF9.6328e-06
aF5.9826e-05
aF5.59594e-05
aF4.0047e-08
aF8.56122e-05
aF0.00226688
aF0.00848125
aF1.91302e-05
aF9.93184e-06
aF9.44392e-07
aF0.000114614
aF8.50965e-06
aF1.68486e-06
aF1.42221e-05
aF1.08965e-07
aF2.98029e-07
aF0.00011475
aF8.888e-05
aF0.000103055
aF2.02635e-06
aF0.000200464
aF6.948e-05
aF6.23941e-05
aF0.00012804
aF0.00109876
aF3.52576e-05
aF0.000325534
aF9.70477e-07
aF6.14675e-08
aF8.8448e-05
aF0.00014167
aF0.000459107
aF0.000117846
aF1.47562e-05
aF1.72822e-05
aF5.12229e-08
aF0.00183455
aF3.40254e-05
aF0.000240903
aF2.8871e-08
aF0.000218498
aF6.00713e-07
aF0.00077543
aF2.38087e-05
aF3.39005e-07
aF0.000178978
aF0.000324561
aF0.00187533
aF2.10146e-05
aF0.000171242
aF1.86517e-06
aF0.000186381
aF6.53812e-07
aF3.64155e-07
aF2.06818e-06
aF5.3272e-07
aF3.42728e-07
aF2.5927e-05
aF1.17258e-06
aF1.42575e-05
aF1.09822e-05
aF1.56742e-05
aF0.000161714
aF8.83045e-05
aF3.30727e-06
aF0.000184004
aF7.7377e-05
aF4.40772e-06
aF2.20791e-06
aF1.2205e-05
aF2.73712e-05
aF0.000392848
aF0.000283257
aF9.73666e-05
aF0.000592961
aF8.60598e-05
aF1.86265e-09
aF0.000682692
aF0.000284281
aF3.1572e-05
aF3.38934e-06
aF9.71449e-05
aF1.87789e-05
aF9.84454e-06
aF7.62576e-06
aF5.33209e-06
aF0.000257824
aF0.000301199
aF6.51926e-09
aF1.28794e-05
aF1.32813e-06
aF1.78314e-05
aF9.79975e-05
aF4.39587e-07
aF1.24798e-07
aF1.64068e-06
aF0.00235464
aF1.46508e-06
aF8.63063e-06
aF5.55074e-07
aF1.95579e-07
aF2.89516e-05
aF1.0689e-05
aF0.000362109
aF0.000114373
aF4.38122e-06
aF0.000562867
aF6.94815e-05
aF2.85512e-05
aF3.85571e-07
aF1.20587e-05
aF0.000194014
aF3.29716e-05
aF0.000166606
aF9.69998e-05
aF0.000274966
aF9.0905e-05
aF2.59842e-07
aF0.000835548
aF9.15324e-05
aF0.000100628
aF9.68634e-07
aF2.84793e-05
aF6.68767e-06
aF6.19892e-06
aF5.58794e-09
aF5.39253e-07
aF2.50506e-05
aF9.01634e-05
aF2.23518e-08
aF2.38932e-05
aF2.19287e-05
aF0.000114909
aF0.000141618
aF2.53923e-05
aF2.79262e-05
aF0.000236561
aF0.000282435
aF1.55034e-06
aF3.24598e-06
aF1.77478e-05
aF5.86735e-08
aF1.05044e-05
aF1.20141e-07
aF0.000243306
aF3.74119e-05
aF1.40357e-06
aF9.95543e-05
aF0.000315995
aF0.000237607
aF1.37334e-05
aF5.40841e-06
aF0.000182843
aF0.000412827
aF3.95237e-05
aF0.000105135
aF0.000284313
aF0.000899344
aF8.94072e-08
aF1.94648e-07
aF6.19104e-05
aF1.02859e-05
aF0.000178083
aF1.6749e-05
aF5.33052e-05
aF0.000147349
aF0.00477383
aF0.000962012
aF1.93579e-05
aF0.000243245
aF3.91156e-08
aF5.23805e-05
aF4.14582e-05
aF2.21236e-05
aF2.00399e-05
aF1.30385e-08
aF0.000217481
aF0.000915842
aF7.77447e-05
aF6.32129e-05
aF9.57034e-06
aF1.50376e-06
aF6.03591e-05
aF2.13811e-05
aF1.21072e-08
aF3.90048e-05
aF1.56463e-07
aF1.30385e-08
aF5.10875e-05
aF3.54454e-06
aF2.50128e-06
aF2.97894e-06
aF1.84157e-05
aF0.000195154
aF9.37589e-05
aF5.25145e-05
aF7.79291e-06
aF0.000182929
aF0.000106022
aF1.85334e-07
aF5.31799e-07
aF0.0001458
aF0.000147165
aF0.000605342
aF1.65084e-05
aF1.04311e-06
aF3.80342e-05
aF2.27246e-07
aF0.000470624
aF4.1999e-05
aF5.29072e-05
aF1.48081e-07
aF3.36052e-05
aF9.03384e-08
aF3.65396e-05
aF1.03745e-05
aF5.21548e-07
aF3.58204e-05
aF0.0010191
aF0.00105417
aF9.4382e-06
aF8.5033e-07
aF4.93406e-05
aF0.000397757
aF7.27346e-05
aF3.72529e-09
aF1.14553e-07
aF2.49596e-07
aF1.42493e-07
aF7.31326e-06
aF3.25966e-07
aF1.40265e-06
aF2.63142e-06
aF2.11144e-06
aF6.76221e-05
aF8.19331e-05
aF2.95098e-06
aF2.97818e-06
aF0.000500578
aF2.1607e-07
aF2.52373e-06
aF3.86489e-05
aF1.17264e-05
aF2.27353e-05
aF0.00121733
aF2.76664e-05
aF0.000230199
aF9.44283e-05
aF1.12691e-07
aF0.000136644
aF1.17198e-05
aF3.57681e-05
aF8.53817e-06
aF2.19713e-05
aF9.27778e-05
aF7.92576e-07
aF8.68948e-07
aF1.12325e-06
aF7.6326e-05
aF0.000190662
aF1.39699e-08
aF0.000118797
aF4.3913e-06
aF1.77744e-05
aF3.2192e-05
aF3.65081e-07
aF0.0
aF1.98374e-07
aF6.28327e-05
aF4.87601e-05
aF3.98719e-06
aF5.02952e-06
aF9.40639e-08
aF1.84782e-05
aF2.39981e-06
aF0.000134964
aF9.5382e-06
aF1.12691e-07
aF4.01685e-05
aF5.32432e-06
aF3.19382e-05
aF3.43992e-06
aF2.35317e-06
aF8.45469e-05
aF0.000170738
aF0.000175857
aF8.1901e-05
aF0.000162563
aF0.000240325
aF1.04498e-06
aF0.000313342
aF3.3001e-05
aF1.32064e-05
aF2.73112e-06
aF5.92456e-06
aF1.73139e-06
aF1.44043e-05
aF3.07337e-08
aF3.51116e-07
aF1.50179e-05
aF0.000953581
aF7.82314e-08
aF2.78525e-05
aF9.59264e-08
aF5.25382e-06
aF9.78527e-05
aF9.51858e-07
aF5.48568e-07
aF9.48981e-05
aF7.13553e-05
aF4.64805e-06
aF1.90244e-06
aF7.55318e-07
aF7.82313e-08
aF3.44638e-06
aF2.56062e-06
aF0.00013493
aF4.17893e-06
aF8.63375e-07
aF4.97458e-05
aF6.64053e-07
aF3.09019e-05
aF2.10926e-06
aF4.00753e-06
aF0.000334468
aF0.000406032
aF3.99181e-05
aF2.41732e-05
aF4.8008e-06
aF5.13894e-05
aF2.35627e-07
aF7.65623e-05
aF8.04576e-06
aF6.02473e-06
aF0.000300696
aF1.28167e-05
aF4.06615e-06
aF8.87591e-07
aF2.54255e-07
aF0.000669064
aF1.33933e-06
aF0.000106906
aF1.51807e-07
aF1.52618e-05
aF1.47149e-07
aF1.25668e-05
aF3.38301e-06
aF6.51926e-09
aF1.38745e-05
aF0.000192133
aF7.15111e-05
aF2.3917e-05
aF1.64374e-05
aF1.60567e-06
aF0.000111595
aF4.21375e-06
aF7.06899e-07
aF2.21919e-06
aF2.3004e-07
aF1.49012e-08
aF2.12651e-05
aF4.00229e-05
aF8.69866e-05
aF5.96069e-07
aF1.04546e-05
aF5.40958e-05
aF8.53947e-05
aF5.51574e-05
aF4.82196e-06
aF0.000210401
aF8.28067e-05
aF8.10287e-07
aF1.86265e-09
aF1.96362e-05
aF1.28447e-05
aF0.000207221
aF4.65525e-06
aF0.000166546
aF9.76811e-06
aF2.51457e-08
aF0.000160941
aF7.6727e-06
aF0.000210589
aF1.22572e-06
aF1.46907e-05
aF3.53903e-08
aF8.58973e-05
aF1.44521e-05
aF8.80149e-07
aF3.69579e-05
aF0.000137752
aF0.000416741
aF2.615e-05
aF2.67289e-05
aF2.79397e-08
aF0.000110803
aF4.18167e-07
aF5.60666e-07
aF4.2562e-07
aF3.23175e-07
aF2.79397e-09
aF1.1467e-05
aF1.06647e-05
aF2.66362e-07
aF5.23251e-06
aF1.95579e-07
aF7.06679e-05
aF0.000171587
aF4.56349e-08
aF7.85354e-06
aF2.09857e-05
aF1.62113e-06
aF1.1987e-06
aF2.09655e-06
aF8.02837e-06
aF2.04284e-05
aF0.00046254
aF4.52179e-06
aF0.000217567
aF6.58454e-05
aF6.51926e-09
aF0.00122256
aF3.34733e-05
aF0.000143204
aF3.51607e-06
aF6.12099e-05
aF4.19028e-06
aF2.37633e-05
aF4.58217e-07
aF8.73627e-07
aF3.25608e-06
aF0.00129679
aF2.79397e-09
aF3.81615e-06
aF6.19263e-05
aF1.78228e-06
aF6.39448e-05
aF2.65969e-06
aF0.0
aF2.60001e-06
aF3.50509e-05
aF5.42978e-07
aF6.61907e-06
aF1.30394e-06
aF2.14204e-08
aF2.95466e-05
aF6.67414e-06
aF0.000617387
aF6.40868e-05
aF1.45478e-06
aF1.34112e-05
aF2.3436e-05
aF2.13054e-05
aF1.76829e-06
aF6.80854e-06
aF3.42477e-05
aF5.48106e-05
aF6.66703e-05
aF0.000978542
aF1.01688e-05
aF6.39482e-05
aF0.000675467
aF0.00176784
aF4.62986e-06
aF4.56024e-05
aF1.15678e-06
aF2.61062e-05
aF6.27721e-07
aF6.68717e-07
aF9.31323e-10
aF4.93602e-08
aF1.64182e-05
aF8.22186e-05
aF1.96859e-06
aF1.75317e-05
aF6.1749e-07
aF6.52044e-05
aF5.52077e-05
aF5.02916e-08
aF1.08319e-06
aF1.79296e-05
aF5.1328e-05
aF2.03702e-05
aF8.72709e-06
aF2.03065e-05
aF2.98024e-08
aF9.83281e-06
aF2.81264e-07
aF0.000198511
aF2.49598e-07
aF1.74159e-07
aF0.000392428
aF5.79756e-05
aF1.07207e-05
aF5.52045e-06
aF1.04222e-06
aF4.36198e-06
aF5.22085e-05
aF3.82786e-05
aF7.24826e-05
aF5.25138e-06
aF0.000177665
aF6.51926e-09
aF0.000116849
aF2.97236e-05
aF4.60264e-06
aF0.000200852
aF1.11921e-05
aF0.000171174
aF2.4939e-05
aF0.0
aF0.00147103
aF1.94621e-06
aF1.97938e-05
aF9.31323e-10
aF8.65508e-06
aF8.42871e-07
aF2.1642e-06
aF6.32183e-05
aF1.22292e-06
aF2.23824e-05
aF0.000271439
aF0.00102928
aF3.75184e-06
aF1.66861e-06
aF4.74094e-06
aF4.22246e-05
aF4.16359e-05
aF1.86265e-09
aF3.0884e-06
aF3.4459e-08
aF4.31733e-06
aF1.31644e-05
aF2.54288e-06
aF1.23287e-05
aF2.52988e-06
aF5.95123e-07
aF0.000227993
aF1.45804e-05
aF3.04763e-05
aF8.14949e-07
aF2.39986e-06
aF7.70677e-06
aF1.40631e-07
aF9.31323e-10
aF6.74434e-06
aF9.53318e-05
aF0.000374677
aF3.2726e-05
aF4.91257e-05
aF3.24317e-06
aF9.31323e-10
aF0.000157279
aF1.08786e-06
aF4.53327e-05
aF9.31323e-09
aF1.70696e-05
aF7.041e-07
aF5.45322e-06
aF8.17569e-06
aF2.42135e-05
aF6.22902e-05
aF7.14458e-05
aF4.75586e-05
aF4.79135e-06
aF2.97253e-06
aF4.80244e-06
aF0.000166473
aF9.70482e-07
aF2.18863e-07
aF5.17824e-07
aF1.6764e-07
aF0.0
aF6.35164e-06
aF1.49013e-07
aF6.06526e-06
aF8.84568e-06
aF1.24171e-05
aF0.000318227
aF2.50324e-06
aF1.12691e-07
aF4.95479e-07
aF1.24971e-05
aF7.36652e-06
aF6.268e-07
aF1.21073e-07
aF9.82627e-06
aF3.87154e-06
aF7.45309e-05
aF1.59845e-05
aF8.32401e-05
aF0.000101268
aF0.0
aF0.000413711
aF7.17399e-06
aF8.85094e-06
aF5.63976e-06
aF2.18942e-05
aF3.42592e-06
aF5.82185e-06
aF1.76951e-08
aF6.51926e-09
aF2.87297e-05
aF0.000125865
aF1.67638e-08
aF3.96645e-06
aF0.000251576
aF9.36966e-07
aF0.000149997
aF1.99036e-06
aF0.0
aF8.10254e-08
aF0.000698031
aF1.40631e-07
aF1.0043e-05
aF6.45547e-06
aF1.07668e-06
aF1.36161e-05
aF3.44592e-07
aF0.000223424
aF2.2942e-05
aF9.0064e-07
aF0.000141144
aF0.000106174
aF7.22277e-06
aF9.83537e-07
aF6.13045e-06
aF3.34881e-05
aF2.66809e-06
aF0.000183097
aF9.61843e-05
aF4.47849e-06
aF2.83227e-05
aF6.98494e-08
aF2.11493e-05
aF1.52104e-05
aF2.3159e-05
aF1.00496e-06
aF1.21552e-05
aF7.53627e-05
aF1.00773e-06
aF6.51926e-09
aF5.21542e-08
aF7.42468e-06
aF1.36395e-05
aF2.04895e-05
aF1.3998e-05
aF2.98024e-08
aF4.03978e-05
aF2.66095e-05
aF2.10482e-07
aF7.95383e-07
aF3.19557e-05
aF3.43165e-05
aF2.32833e-07
aF7.86054e-07
aF5.29712e-06
aF5.58794e-09
aF1.21914e-06
aF3.91156e-08
aF0.000322885
aF4.47035e-08
aF6.67776e-07
aF5.06301e-05
aF0.00014967
aF3.03131e-06
aF2.59841e-07
aF3.06512e-06
aF7.91628e-08
aF1.95209e-05
aF3.38609e-06
aF0.000156905
aF3.09829e-06
aF2.10267e-06
aF4.65661e-09
aF5.49482e-08
aF0.000116363
aF2.49565e-06
aF0.000100199
aF7.22276e-06
aF4.21893e-07
aF3.46456e-07
aF5.21542e-08
aF6.7454e-05
aF2.63139e-06
aF2.04876e-05
aF3.25038e-07
aF1.55559e-05
aF0.00114228
aF8.12052e-06
aF7.3126e-06
aF1.49012e-08
aF1.66314e-05
aF0.000205464
aF0.000604882
aF2.29824e-06
aF2.22587e-07
aF8.22585e-06
aF1.85122e-06
aF4.15839e-06
aF1.1269e-07
aF7.11202e-06
aF4.71262e-07
aF1.76022e-07
aF0.000277839
aF2.71177e-06
aF1.85885e-05
aF2.15957e-06
aF7.07035e-06
aF0.000136286
aF7.34982e-05
aF3.6808e-05
aF2.3021e-06
aF8.10275e-07
aF5.1415e-05
aF3.1665e-08
aF1.86265e-09
aF4.56457e-06
aF7.81379e-06
aF0.000303944
aF3.59751e-06
aF0.000154214
aF4.53433e-06
aF6.98495e-08
aF0.000262763
aF1.65276e-06
aF1.07103e-05
aF5.31803e-07
aF2.58853e-06
aF5.12228e-08
aF1.19746e-05
aF4.95662e-06
aF1.62051e-07
aF5.48827e-06
aF0.000158869
aF2.77353e-05
aF3.29355e-06
aF1.96615e-06
aF1.78816e-07
aF9.81249e-05
aF2.59414e-06
aF1.86265e-09
aF2.71789e-05
aF7.45058e-09
aF6.70555e-08
aF2.14675e-05
aF1.49943e-07
aF2.74738e-05
aF6.38538e-06
aF1.22004e-07
aF0.00043205
aF0.000147865
aF1.64845e-07
aF0.000161783
aF0.000243016
aF7.49013e-06
aF3.9116e-07
aF3.3407e-05
aF2.55122e-05
aF1.30512e-05
aF0.000747974
aF1.0293e-05
aF0.000201133
aF6.70173e-05
aF3.81843e-08
aF0.000200387
aF6.78761e-06
aF1.98732e-05
aF1.13256e-06
aF1.14374e-05
aF1.65776e-07
aF1.83483e-05
aF3.07337e-08
aF2.95235e-07
aF2.1665e-05
aF8.17741e-05
aF7.07808e-08
aF1.73941e-06
aF0.000227616
aF1.22837e-05
aF2.70398e-05
aF0.000110108
aF4.65661e-09
aF4.20745e-06
aF0.000524217
aF4.61326e-06
aF4.79405e-06
aF3.70994e-06
aF4.00782e-05
aF2.59788e-06
aF3.96747e-07
aF0.000130317
aF8.4478e-06
aF1.84097e-06
aF6.00032e-06
aF4.61059e-05
aF1.89352e-05
aF1.56287e-06
aF6.14696e-07
aF1.78106e-05
aF8.5127e-05
aF0.000128466
aF4.42598e-05
aF5.01631e-06
aF1.66231e-05
aF1.0524e-07
aF0.000228
aF2.60845e-06
aF1.87592e-05
aF4.24379e-06
aF3.46459e-07
aF4.18119e-06
aF1.40484e-05
aF3.72529e-09
aF2.04891e-08
aF0.000143567
aF4.53562e-05
aF3.26948e-05
aF1.42608e-05
aF6.28771e-05
aF1.23037e-06
aF2.10277e-05
aF2.23518e-08
aF5.58794e-09
aF7.16819e-05
aF0.000691877
aF5.57882e-07
aF6.18418e-07
aF1.70866e-06
aF9.31323e-10
aF1.69976e-06
aF1.98063e-06
aF0.000233758
aF7.84189e-07
aF3.35277e-08
aF6.00005e-06
aF6.29239e-06
aF6.40321e-06
aF1.0189e-06
aF5.31449e-06
aF9.31323e-10
aF5.19597e-05
aF4.05641e-06
aF2.63234e-06
aF5.10422e-06
aF5.3758e-05
aF9.31323e-10
aF0.0
aF1.20253e-05
aF1.40201e-05
aF0.00033973
aF7.88678e-06
aF5.49338e-05
aF1.90086e-05
aF0.0
aF0.00101864
aF2.7972e-06
aF5.49417e-05
aF9.31323e-10
aF1.19241e-05
aF6.07507e-06
aF6.51078e-06
aF3.17611e-05
aF3.1665e-08
aF2.91398e-05
aF4.68476e-05
aF0.000368031
aF4.46446e-06
aF2.00207e-06
aF2.49723e-06
aF4.92355e-05
aF1.36351e-06
aF1.86265e-09
aF2.03567e-06
aF1.94717e-06
aF2.79397e-09
aF4.39168e-06
aF4.19364e-05
aF8.95823e-06
aF2.7288e-07
aF3.44885e-06
aF0.000240815
aF5.19109e-06
aF3.75785e-05
aF2.88689e-05
aF2.95654e-06
aF2.0635e-05
aF2.60771e-08
aF0.0
aF0.000148652
aF3.46736e-05
aF0.000372794
aF5.30648e-06
aF1.03474e-06
aF1.08107e-05
aF5.68109e-08
aF0.000191334
aF1.35993e-05
aF1.97155e-05
aF9.01761e-06
aF2.29816e-05
aF2.04818e-05
aF6.60487e-06
aF6.89151e-06
aF6.51022e-07
aF7.53518e-05
aF0.00024459
aF0.000253945
aF2.96889e-06
aF2.62247e-05
aF2.61704e-07
aF6.9951e-05
aF5.52309e-06
aF5.12229e-08
aF1.20591e-05
aF6.14674e-08
aF1.21072e-08
aF9.9311e-06
aF4.4425e-07
aF0.000140029
aF5.94206e-07
aF1.1921e-07
aF0.000121743
aF3.08588e-05
aF2.4494e-07
aF1.36142e-05
aF3.00524e-06
aF4.28417e-05
aF1.23889e-05
aF7.13415e-07
aF1.48889e-05
aF2.61223e-06
aF0.000165035
aF2.0358e-05
aF1.54288e-06
aF1.67905e-05
aF1.02446e-08
aF0.000173506
aF7.26169e-06
aF1.08841e-05
aF8.87596e-07
aF1.30869e-05
aF1.87167e-06
aF4.57125e-06
aF1.47149e-07
aF1.98374e-07
aF2.6608e-05
aF0.000309337
aF4.65661e-09
aF6.29871e-06
aF0.000117981
aF9.31323e-10
aF2.34764e-05
aF3.91156e-08
aF5.96048e-08
aF4.47047e-07
aF5.53032e-05
aF7.36711e-07
aF1.91177e-06
aF2.97541e-06
aF1.69374e-06
aF1.06741e-05
aF7.10623e-07
aF8.93555e-05
aF7.66049e-05
aF3.05479e-07
aF6.89039e-05
aF2.12603e-06
aF1.72305e-06
aF1.95835e-06
aF9.8072e-07
aF5.78555e-06
aF1.29141e-05
aF4.88008e-05
aF3.74167e-05
aF1.65795e-05
aF7.61357e-05
aF2.79397e-09
aF0.000804146
aF1.66348e-05
aF2.18512e-05
aF1.62052e-07
aF9.66746e-07
aF9.15629e-05
aF4.24186e-06
aF9.31323e-10
aF3.25963e-08
aF3.43871e-06
aF0.000198482
aF2.79397e-09
aF2.20405e-05
aF9.40638e-08
aF3.61716e-06
aF2.96602e-05
aF6.79868e-08
aF1.15485e-07
aF1.82426e-05
aF0.000289923
aF9.5745e-07
aF4.79616e-06
aF4.92352e-06
aF9.31323e-10
aF0.000386266
aF3.64887e-06
aF0.000133621
aF1.22935e-07
aF2.51461e-07
aF4.60953e-05
aF4.77779e-07
aF1.26012e-06
aF6.93857e-07
aF4.29843e-06
aF2.7847e-07
aF6.99233e-05
aF9.59612e-06
aF3.52254e-06
aF4.39984e-06
aF8.55533e-06
aF3.72529e-09
aF4.47035e-08
aF6.09092e-05
aF1.49133e-05
aF0.000217809
aF2.6783e-06
aF3.10533e-06
aF5.58795e-08
aF2.03962e-07
aF6.49326e-05
aF6.389e-07
aF6.32465e-05
aF1.74689e-06
aF4.61963e-06
aF8.56819e-08
aF1.97045e-05
aF4.45702e-05
aF1.86265e-09
aF1.97791e-06
aF9.50093e-05
aF0.000479755
aF4.69961e-05
aF4.30277e-07
aF6.47285e-07
aF2.79397e-09
aF9.17786e-06
aF3.8744e-07
aF3.09958e-06
aF2.12344e-07
aF6.51926e-09
aF1.02364e-05
aF3.83415e-05
aF3.67821e-06
aF2.13378e-06
aF8.05766e-06
aF0.000466931
aF2.36171e-05
aF1.73521e-05
aF1.94251e-06
aF1.47526e-05
aF4.85741e-06
aF1.17169e-06
aF9.31323e-10
aF6.15414e-05
aF5.24177e-06
aF0.00043883
aF0.000251683
aF0.000170007
aF2.42491e-06
aF2.79397e-09
aF2.03548e-05
aF1.59258e-07
aF3.17434e-06
aF0.0
aF3.60441e-05
aF5.86734e-08
aF4.69052e-06
aF4.69392e-07
aF4.56349e-08
aF1.50348e-05
aF0.00139743
aF0.000715179
aF5.11303e-07
aF2.64167e-06
aF3.1665e-08
aF8.97045e-06
aF1.41103e-06
aF2.69292e-06
aF4.2842e-07
aF1.49012e-08
aF2.05824e-07
aF0.000128815
aF1.74159e-07
aF3.50877e-06
aF1.83165e-06
aF6.47295e-06
aF0.000324289
aF4.67103e-05
aF2.68224e-07
aF1.35611e-06
aF1.60183e-05
aF2.95962e-05
aF7.84567e-06
aF7.95111e-06
aF1.3227e-05
aF4.66664e-06
aF0.000103269
aF2.6556e-06
aF1.25729e-07
aF5.12228e-08
aF6.14542e-06
aF0.000327381
aF2.03449e-05
aF1.76912e-05
aF1.41062e-06
aF3.29042e-05
aF7.34823e-07
aF2.089e-05
aF7.18079e-07
aF6.23989e-08
aF9.64173e-06
aF8.68095e-05
aF4.40428e-05
aF4.87853e-06
aF2.66797e-06
aF1.56897e-06
aF2.31293e-05
aF1.57269e-06
aF1.35363e-05
aF1.11759e-08
aF0.000337216
aF7.13426e-07
aF7.15288e-07
atp34
tp35
Rp36
aa(lp37
S'learning_rate'
p38
ag0
(g23
g24
(S'LearningRate'
p39
(lp40
F0.01
aF0.01
aF0.01
aF0.01
aF0.01
aF0.01
aF0.01
aF0.01
aF0.01
aF0.01
aF0.01
aF0.01
aF0.01
aF0.01
aF0.01
aF0.01
aF0.01
aF0.01
aF0.01
aF0.01
aF0.01
aF0.01
aF0.01
aF0.01
aF0.01
aF0.01
aF0.01
aF0.01
aF0.01
aF0.01
aF0.01
aF0.01
aF0.01
aF0.01
aF0.01
aF0.01
aF0.01
aF0.01
aF0.01
aF0.01
aF0.01
aF0.01
aF0.01
aF0.01
aF0.01
aF0.01
aF0.01
aF0.01
aF0.01
aF0.01
aF0.01
aF0.01
aF0.01
aF0.01
aF0.01
aF0.01
aF0.01
aF0.01
aF0.01
aF0.01
aF0.01
aF0.01
aF0.01
aF0.01
aF0.01
aF0.01
aF0.01
aF0.01
aF0.01
aF0.01
aF0.01
aF0.01
aF0.01
aF0.01
aF0.01
aF0.01
aF0.01
aF0.01
aF0.01
aF0.01
aF0.01
aF0.01
aF0.01
aF0.01
aF0.01
aF0.01
aF0.01
aF0.01
aF0.01
aF0.01
aF0.01
aF0.01
aF0.01
aF0.01
aF0.01
aF0.01
aF0.01
aF0.01
aF0.01
aF0.01
aF0.01
aF0.01
aF0.01
aF0.01
aF0.01
aF0.01
aF0.01
aF0.01
aF0.01
aF0.01
aF0.01
aF0.01
aF0.01
aF0.01
aF0.01
aF0.01
aF0.01
aF0.01
aF0.01
aF0.01
aF0.01
aF0.01
aF0.01
aF0.01
aF0.01
aF0.01
aF0.01
aF0.01
aF0.01
aF0.01
aF0.01
aF0.01
aF0.01
aF0.01
aF0.01
aF0.01
aF0.01
aF0.01
aF0.01
aF0.01
aF0.01
aF0.01
aF0.01
aF0.01
aF0.01
aF0.01
aF0.01
aF0.01
aF0.01
aF0.01
aF0.01
aF0.01
aF0.01
aF0.01
aF0.01
aF0.01
aF0.01
aF0.01
aF0.01
aF0.01
aF0.01
aF0.01
aF0.01
aF0.01
aF0.01
aF0.01
aF0.01
aF0.01
aF0.01
aF0.01
aF0.01
aF0.01
aF0.01
aF0.01
aF0.01
aF0.01
aF0.01
aF0.01
aF0.01
aF0.01
aF0.01
aF0.01
aF0.01
aF0.01
aF0.01
aF0.01
aF0.01
aF0.01
aF0.01
aF0.01
aF0.01
aF0.01
aF0.01
aF0.01
aF0.01
aF0.01
aF0.01
aF0.01
aF0.01
aF0.01
aF0.01
aF0.01
aF0.01
aF0.01
aF0.01
aF0.01
aF0.01
aF0.01
aF0.01
aF0.01
aF0.01
aF0.01
aF0.01
aF0.01
aF0.01
aF0.01
aF0.01
aF0.01
aF0.01
aF0.01
aF0.01
aF0.01
aF0.01
aF0.01
aF0.01
aF0.01
aF0.01
aF0.01
aF0.01
aF0.01
aF0.01
aF0.01
aF0.01
aF0.01
aF0.01
aF0.01
aF0.01
aF0.01
aF0.01
aF0.01
aF0.01
aF0.01
aF0.01
aF0.01
aF0.01
aF0.01
aF0.01
aF0.01
aF0.01
aF0.01
aF0.01
aF0.01
aF0.01
aF0.01
aF0.01
aF0.01
aF0.01
aF0.01
aF0.01
aF0.01
aF0.01
aF0.01
aF0.01
aF0.01
aF0.01
aF0.01
aF0.01
aF0.01
aF0.01
aF0.01
aF0.01
aF0.01
aF0.01
aF0.01
aF0.01
aF0.01
aF0.01
aF0.01
aF0.01
aF0.01
aF0.01
aF0.01
aF0.01
aF0.01
aF0.01
aF0.01
aF0.01
aF0.01
aF0.01
aF0.01
aF0.01
aF0.01
aF0.01
aF0.01
aF0.01
aF0.01
aF0.01
aF0.01
aF0.01
aF0.01
aF0.01
aF0.01
aF0.01
aF0.01
aF0.01
aF0.01
aF0.01
aF0.01
aF0.01
aF0.01
aF0.01
aF0.01
aF0.01
aF0.01
aF0.01
aF0.01
aF0.01
aF0.01
aF0.01
aF0.01
aF0.01
aF0.01
aF0.01
aF0.01
aF0.01
aF0.01
aF0.01
aF0.01
aF0.01
aF0.01
aF0.01
aF0.01
aF0.01
aF0.01
aF0.01
aF0.01
aF0.01
aF0.01
aF0.01
aF0.01
aF0.01
aF0.01
aF0.01
aF0.01
aF0.01
aF0.01
aF0.01
aF0.01
aF0.01
aF0.01
aF0.01
aF0.01
aF0.01
aF0.01
aF0.01
aF0.01
aF0.01
aF0.01
aF0.01
aF0.01
aF0.01
aF0.01
aF0.01
aF0.01
aF0.01
aF0.01
aF0.01
aF0.01
aF0.01
aF0.01
aF0.01
aF0.01
aF0.01
aF0.01
aF0.01
aF0.01
aF0.01
aF0.01
aF0.01
aF0.01
aF0.01
aF0.01
aF0.01
aF0.01
aF0.01
aF0.01
aF0.01
aF0.01
aF0.01
aF0.01
aF0.01
aF0.01
aF0.01
aF0.01
aF0.01
aF0.01
aF0.01
aF0.01
aF0.01
aF0.01
aF0.01
aF0.01
aF0.01
aF0.01
aF0.01
aF0.01
aF0.01
aF0.01
aF0.01
aF0.01
aF0.01
aF0.01
aF0.01
aF0.01
aF0.01
aF0.01
aF0.01
aF0.01
aF0.01
aF0.01
aF0.01
aF0.01
aF0.01
aF0.01
aF0.01
aF0.01
aF0.01
aF0.01
aF0.01
aF0.01
aF0.01
aF0.01
aF0.01
aF0.01
aF0.01
aF0.01
aF0.01
aF0.01
aF0.01
aF0.01
aF0.01
aF0.01
aF0.01
aF0.01
aF0.01
aF0.01
aF0.01
aF0.01
aF0.01
aF0.01
aF0.01
aF0.01
aF0.01
aF0.01
aF0.01
aF0.01
aF0.01
aF0.01
aF0.01
aF0.01
aF0.01
aF0.01
aF0.01
aF0.01
aF0.01
aF0.01
aF0.01
aF0.01
aF0.01
aF0.01
aF0.01
aF0.01
aF0.01
aF0.01
aF0.01
aF0.01
aF0.01
aF0.01
aF0.01
aF0.01
aF0.01
aF0.01
aF0.01
aF0.01
aF0.01
aF0.01
aF0.01
aF0.01
aF0.01
aF0.01
aF0.01
aF0.01
aF0.01
aF0.01
aF0.01
aF0.01
aF0.01
aF0.01
aF0.01
aF0.01
aF0.01
aF0.01
aF0.01
aF0.01
aF0.01
aF0.01
aF0.01
aF0.01
aF0.01
aF0.01
aF0.01
aF0.01
aF0.01
aF0.01
aF0.01
aF0.01
aF0.01
aF0.01
aF0.01
aF0.01
aF0.01
aF0.01
aF0.01
aF0.01
aF0.01
aF0.01
aF0.01
aF0.01
aF0.01
aF0.01
aF0.01
aF0.01
aF0.01
aF0.01
aF0.01
aF0.01
aF0.01
aF0.01
aF0.01
aF0.01
aF0.01
aF0.01
aF0.001
aF0.001
aF0.001
aF0.001
aF0.001
aF0.001
aF0.001
aF0.001
aF0.001
aF0.001
aF0.001
aF0.001
aF0.001
aF0.001
aF0.001
aF0.001
aF0.001
aF0.001
aF0.001
aF0.001
aF0.001
aF0.001
aF0.001
aF0.001
aF0.001
aF0.001
aF0.001
aF0.001
aF0.001
aF0.001
aF0.001
aF0.001
aF0.001
aF0.001
aF0.001
aF0.001
aF0.001
aF0.001
aF0.001
aF0.001
aF0.001
aF0.001
aF0.001
aF0.001
aF0.001
aF0.001
aF0.001
aF0.001
aF0.001
aF0.001
aF0.001
aF0.001
aF0.001
aF0.001
aF0.001
aF0.001
aF0.001
aF0.001
aF0.001
aF0.001
aF0.001
aF0.001
aF0.001
aF0.001
aF0.001
aF0.001
aF0.001
aF0.001
aF0.001
aF0.001
aF0.001
aF0.001
aF0.001
aF0.001
aF0.001
aF0.001
aF0.001
aF0.001
aF0.001
aF0.001
aF0.001
aF0.001
aF0.001
aF0.001
aF0.001
aF0.001
aF0.001
aF0.001
aF0.001
aF0.001
aF0.001
aF0.001
aF0.001
aF0.001
aF0.001
aF0.001
aF0.001
aF0.001
aF0.001
aF0.001
aF0.001
aF0.001
aF0.001
aF0.001
aF0.001
aF0.001
aF0.001
aF0.001
aF0.001
aF0.001
aF0.001
aF0.001
aF0.001
aF0.001
aF0.001
aF0.001
aF0.001
aF0.001
aF0.001
aF0.001
aF0.001
aF0.001
aF0.001
aF0.001
aF0.001
aF0.001
aF0.001
aF0.001
aF0.001
aF0.001
aF0.001
aF0.001
aF0.001
aF0.001
aF0.001
aF0.001
aF0.001
aF0.001
aF0.001
aF0.001
aF0.001
aF0.001
aF0.001
aF0.001
aF0.001
aF0.001
aF0.001
aF0.001
aF0.001
aF0.001
aF0.001
aF0.001
aF0.001
aF0.001
aF0.001
aF0.001
aF0.001
aF0.001
aF0.001
aF0.001
aF0.001
aF0.001
aF0.001
aF0.001
aF0.001
aF0.001
aF0.001
aF0.001
aF0.001
aF0.001
aF0.001
aF0.001
aF0.001
aF0.001
aF0.001
aF0.001
aF0.001
aF0.001
aF0.001
aF0.001
aF0.001
aF0.001
aF0.001
aF0.001
aF0.001
aF0.001
aF0.001
aF0.001
aF0.001
aF0.001
aF0.001
aF0.001
aF0.001
aF0.001
aF0.001
aF0.001
aF0.001
aF0.001
aF0.001
aF0.001
aF0.001
aF0.001
aF0.001
aF0.001
aF0.001
aF0.001
aF0.001
aF0.001
aF0.001
aF0.001
aF0.001
aF0.001
aF0.001
aF0.001
aF0.001
aF0.001
aF0.001
aF0.001
aF0.001
aF0.001
aF0.001
aF0.001
aF0.001
aF0.001
aF0.001
aF0.001
aF0.001
aF0.001
aF0.001
aF0.001
aF0.001
aF0.001
aF0.001
aF0.001
aF0.001
aF0.001
aF0.001
aF0.001
aF0.001
aF0.001
aF0.001
aF0.001
aF0.001
aF0.001
aF0.001
aF0.001
aF0.001
aF0.001
aF0.001
aF0.001
aF0.001
aF0.001
aF0.001
aF0.001
aF0.001
aF0.001
aF0.001
aF0.001
aF0.001
aF0.001
aF0.001
aF0.001
aF0.001
aF0.001
aF0.001
aF0.001
aF0.001
aF0.001
aF0.001
aF0.001
aF0.001
aF0.001
aF0.001
aF0.001
aF0.001
aF0.001
aF0.001
aF0.001
aF0.001
aF0.001
aF0.001
aF0.001
aF0.001
aF0.001
aF0.001
aF0.001
aF0.001
aF0.001
aF0.001
aF0.001
aF0.001
aF0.001
aF0.001
aF0.001
aF0.001
aF0.001
aF0.001
aF0.001
aF0.001
aF0.001
aF0.001
aF0.001
aF0.001
aF0.001
aF0.001
aF0.001
aF0.001
aF0.001
aF0.001
aF0.001
aF0.001
aF0.001
aF0.001
aF0.001
aF0.001
aF0.001
aF0.001
aF0.001
aF0.001
aF0.001
aF0.001
aF0.001
aF0.001
aF0.001
aF0.001
aF0.001
aF0.001
aF0.001
aF0.001
aF0.001
aF0.001
aF0.001
aF0.001
aF0.001
aF0.001
aF0.001
aF0.001
aF0.001
aF0.001
aF0.001
aF0.001
aF0.001
aF0.001
aF0.001
aF0.001
aF0.001
aF0.001
aF0.001
aF0.001
aF0.001
aF0.001
aF0.001
aF0.001
aF0.001
aF0.001
aF0.001
aF0.001
aF0.001
aF0.001
aF0.001
aF0.001
aF0.001
aF0.001
aF0.001
aF0.001
aF0.001
aF0.001
aF0.001
aF0.001
aF0.001
aF0.001
aF0.001
aF0.001
aF0.001
aF0.001
aF0.001
aF0.001
aF0.001
aF0.001
aF0.001
aF0.001
aF0.001
aF0.001
aF0.001
aF0.001
aF0.001
aF0.001
aF0.001
aF0.001
aF0.001
aF0.001
aF0.001
aF0.001
aF0.001
aF0.001
aF0.001
aF0.001
aF0.001
aF0.001
aF0.001
aF0.001
aF0.001
aF0.001
aF0.001
aF0.001
aF0.001
aF0.001
aF0.001
aF0.001
aF0.001
aF0.001
aF0.001
aF0.001
aF0.001
aF0.001
aF0.001
aF0.001
aF0.001
aF0.001
aF0.001
aF0.001
aF0.001
aF0.001
aF0.001
aF0.001
aF0.001
aF0.001
aF0.001
aF0.001
aF0.001
aF0.001
aF0.001
aF0.001
aF0.001
aF0.001
aF0.001
aF0.001
aF0.001
aF0.001
aF0.001
aF0.001
aF0.001
aF0.001
aF0.001
aF0.001
aF0.001
aF0.001
aF0.001
aF0.001
aF0.001
aF0.001
aF0.001
aF0.001
aF0.001
aF0.001
aF0.001
aF0.001
aF0.001
aF0.001
aF0.001
aF0.001
aF0.001
aF0.001
aF0.001
aF0.001
aF0.001
aF0.001
aF0.001
aF0.001
aF0.001
aF0.001
aF0.001
aF0.001
aF0.001
aF0.001
aF0.001
aF0.001
aF0.001
aF0.001
aF0.001
aF0.001
aF0.001
aF0.001
aF0.001
aF0.001
aF0.001
aF0.001
aF0.001
aF0.001
aF0.001
aF0.001
aF0.001
aF0.001
aF0.001
aF0.001
aF0.001
aF0.001
aF0.001
aF0.001
aF0.001
aF0.001
aF0.001
aF0.001
aF0.001
aF0.001
aF0.001
aF0.001
aF0.001
aF0.001
aF0.001
aF0.001
aF0.001
aF0.001
aF0.001
aF0.001
aF0.001
aF0.001
aF0.001
aF0.001
aF0.001
aF0.001
aF0.001
aF0.001
aF0.001
aF0.001
aF0.001
aF0.001
aF0.001
aF0.001
aF0.001
aF0.001
aF0.001
aF0.001
aF0.001
aF0.001
aF0.001
aF0.001
aF0.001
aF0.001
aF0.001
aF0.001
aF0.0001
aF0.0001
aF0.0001
aF0.0001
aF0.0001
aF0.0001
aF0.0001
aF0.0001
aF0.0001
aF0.0001
aF0.0001
aF0.0001
aF0.0001
aF0.0001
aF0.0001
aF0.0001
aF0.0001
aF0.0001
aF0.0001
aF0.0001
aF0.0001
aF0.0001
aF0.0001
aF0.0001
aF0.0001
aF0.0001
aF0.0001
aF0.0001
aF0.0001
aF0.0001
aF0.0001
aF0.0001
aF0.0001
aF0.0001
aF0.0001
aF0.0001
aF0.0001
aF0.0001
aF0.0001
aF0.0001
aF0.0001
aF0.0001
aF0.0001
aF0.0001
aF0.0001
aF0.0001
aF0.0001
aF0.0001
aF0.0001
aF0.0001
aF0.0001
aF0.0001
aF0.0001
aF0.0001
aF0.0001
aF0.0001
aF0.0001
aF0.0001
aF0.0001
aF0.0001
aF0.0001
aF0.0001
aF0.0001
aF0.0001
aF0.0001
aF0.0001
aF0.0001
aF0.0001
aF0.0001
aF0.0001
aF0.0001
aF0.0001
aF0.0001
aF0.0001
aF0.0001
aF0.0001
aF0.0001
aF0.0001
aF0.0001
aF0.0001
aF0.0001
aF0.0001
aF0.0001
aF0.0001
aF0.0001
aF0.0001
aF0.0001
aF0.0001
aF0.0001
aF0.0001
aF0.0001
aF0.0001
aF0.0001
aF0.0001
aF0.0001
aF0.0001
aF0.0001
aF0.0001
aF0.0001
aF0.0001
aF0.0001
aF0.0001
aF0.0001
aF0.0001
aF0.0001
aF0.0001
aF0.0001
aF0.0001
aF0.0001
aF0.0001
aF0.0001
aF0.0001
aF0.0001
aF0.0001
aF0.0001
aF0.0001
aF0.0001
aF0.0001
aF0.0001
aF0.0001
aF0.0001
aF0.0001
aF0.0001
aF0.0001
aF0.0001
aF0.0001
aF0.0001
aF0.0001
aF0.0001
aF0.0001
aF0.0001
aF0.0001
aF0.0001
aF0.0001
aF0.0001
aF0.0001
aF0.0001
aF0.0001
aF0.0001
aF0.0001
aF0.0001
aF0.0001
aF0.0001
aF0.0001
aF0.0001
aF0.0001
aF0.0001
aF0.0001
aF0.0001
aF0.0001
aF0.0001
aF0.0001
aF0.0001
aF0.0001
aF0.0001
aF0.0001
aF0.0001
aF0.0001
aF0.0001
aF0.0001
aF0.0001
aF0.0001
aF0.0001
aF0.0001
aF0.0001
aF0.0001
aF0.0001
aF0.0001
aF0.0001
aF0.0001
aF0.0001
aF0.0001
aF0.0001
aF0.0001
aF0.0001
aF0.0001
aF0.0001
aF0.0001
aF0.0001
aF0.0001
aF0.0001
aF0.0001
aF0.0001
aF0.0001
aF0.0001
aF0.0001
aF0.0001
aF0.0001
aF0.0001
aF0.0001
aF0.0001
aF0.0001
aF0.0001
aF0.0001
aF0.0001
aF0.0001
aF0.0001
aF0.0001
aF0.0001
aF0.0001
aF0.0001
aF0.0001
aF0.0001
aF0.0001
aF0.0001
aF0.0001
aF0.0001
aF0.0001
aF0.0001
aF0.0001
aF0.0001
aF0.0001
aF0.0001
aF0.0001
aF0.0001
aF0.0001
aF0.0001
aF0.0001
aF0.0001
aF0.0001
aF0.0001
aF0.0001
aF0.0001
aF0.0001
aF0.0001
aF0.0001
aF0.0001
aF0.0001
aF0.0001
aF0.0001
aF0.0001
aF0.0001
aF0.0001
aF0.0001
aF0.0001
aF0.0001
aF0.0001
aF0.0001
aF0.0001
aF0.0001
aF0.0001
aF0.0001
aF0.0001
aF0.0001
aF0.0001
aF0.0001
aF0.0001
aF0.0001
aF0.0001
aF0.0001
aF0.0001
aF0.0001
aF0.0001
aF0.0001
aF0.0001
aF0.0001
aF0.0001
aF0.0001
aF0.0001
aF0.0001
aF0.0001
aF0.0001
aF0.0001
aF0.0001
aF0.0001
aF0.0001
aF0.0001
aF0.0001
aF0.0001
aF0.0001
aF0.0001
aF0.0001
aF0.0001
aF0.0001
aF0.0001
aF0.0001
aF0.0001
aF0.0001
aF0.0001
aF0.0001
aF0.0001
aF0.0001
aF0.0001
aF0.0001
aF0.0001
aF0.0001
aF0.0001
aF0.0001
aF0.0001
aF0.0001
aF0.0001
aF0.0001
aF0.0001
aF0.0001
aF0.0001
aF0.0001
aF0.0001
aF0.0001
aF0.0001
aF0.0001
aF0.0001
aF0.0001
aF0.0001
aF0.0001
aF0.0001
aF0.0001
aF0.0001
aF0.0001
aF0.0001
aF0.0001
aF0.0001
aF0.0001
aF0.0001
aF0.0001
aF0.0001
aF0.0001
aF0.0001
aF0.0001
aF0.0001
aF0.0001
aF0.0001
aF0.0001
aF0.0001
aF0.0001
aF0.0001
aF0.0001
aF0.0001
aF0.0001
aF0.0001
aF0.0001
aF0.0001
aF0.0001
aF0.0001
aF0.0001
aF0.0001
aF0.0001
aF0.0001
aF0.0001
aF0.0001
aF0.0001
aF0.0001
aF0.0001
aF0.0001
aF0.0001
aF0.0001
aF0.0001
aF0.0001
aF0.0001
aF0.0001
aF0.0001
aF0.0001
aF0.0001
aF0.0001
aF0.0001
aF0.0001
aF0.0001
aF0.0001
aF0.0001
aF0.0001
aF0.0001
aF0.0001
aF0.0001
aF0.0001
aF0.0001
aF0.0001
aF0.0001
aF0.0001
aF0.0001
aF0.0001
aF0.0001
aF0.0001
aF0.0001
aF0.0001
aF0.0001
aF0.0001
aF0.0001
aF0.0001
aF0.0001
aF0.0001
aF0.0001
aF0.0001
aF0.0001
aF0.0001
aF0.0001
aF0.0001
aF0.0001
aF0.0001
aF0.0001
aF0.0001
aF0.0001
aF0.0001
aF0.0001
aF0.0001
aF0.0001
aF0.0001
aF0.0001
aF0.0001
aF0.0001
aF0.0001
aF0.0001
aF0.0001
aF0.0001
aF0.0001
aF0.0001
aF0.0001
aF0.0001
aF0.0001
aF0.0001
aF0.0001
aF0.0001
aF0.0001
aF0.0001
aF0.0001
aF0.0001
aF0.0001
aF0.0001
aF0.0001
aF0.0001
aF0.0001
aF0.0001
aF0.0001
aF0.0001
aF0.0001
aF0.0001
aF0.0001
aF0.0001
aF0.0001
aF0.0001
aF0.0001
aF0.0001
aF0.0001
aF0.0001
aF0.0001
aF0.0001
aF0.0001
aF0.0001
aF0.0001
aF0.0001
aF0.0001
aF0.0001
aF0.0001
aF0.0001
aF0.0001
aF0.0001
aF0.0001
aF0.0001
aF0.0001
aF0.0001
aF0.0001
aF0.0001
aF0.0001
aF0.0001
aF0.0001
aF0.0001
aF0.0001
aF0.0001
aF0.0001
aF0.0001
aF0.0001
aF0.0001
aF0.0001
aF0.0001
aF0.0001
aF0.0001
aF0.0001
aF0.0001
aF0.0001
aF0.0001
aF0.0001
aF0.0001
aF0.0001
aF0.0001
aF0.0001
aF0.0001
aF0.0001
aF0.0001
aF0.0001
aF0.0001
aF0.0001
aF0.0001
aF0.0001
aF0.0001
aF0.0001
aF0.0001
aF0.0001
aF0.0001
aF0.0001
aF0.0001
aF0.0001
aF0.0001
aF0.0001
aF0.0001
aF0.0001
aF0.0001
aF0.0001
aF0.0001
aF0.0001
aF0.0001
aF0.0001
aF0.0001
aF0.0001
aF0.0001
aF0.0001
aF0.0001
aF0.0001
aF0.0001
aF0.0001
aF0.0001
aF0.0001
aF0.0001
aF0.0001
aF0.0001
aF0.0001
aF0.0001
aF0.0001
aF0.0001
aF0.0001
aF0.0001
aF0.0001
aF0.0001
aF0.0001
aF0.0001
aF0.0001
aF0.0001
aF0.0001
aF0.0001
aF0.0001
aF0.0001
aF0.0001
aF0.0001
aF0.0001
aF0.0001
aF0.0001
aF0.0001
aF0.0001
aF0.0001
aF0.0001
aF0.0001
aF0.0001
aF0.0001
aF0.0001
aF1e-05
aF1e-05
aF1e-05
aF1e-05
aF1e-05
aF1e-05
aF1e-05
aF1e-05
aF1e-05
aF1e-05
aF1e-05
aF1e-05
aF1e-05
aF1e-05
aF1e-05
aF1e-05
atp41
tp42
Rp43
aatp44
Rp45
sS'val_outputs'
p46
g19
((lp47
(lp48
g22
ag0
(g23
g24
(g25
(lp49
I0
aF1.0
aF2.0
aF3.0
aF4.0
aF5.0
aF6.0
aF7.0
aF8.0
aF9.0
aF10.0
aF11.0
aF12.0
aF13.0
aF14.0
aF15.0
aF16.0
aF17.0
aF18.0
aF19.0
aF20.0
aF21.0
aF22.0
aF23.0
aF24.0
aF25.0
aF26.0
aF27.0
aF28.0
aF29.0
aF30.0
aF31.0
aF32.0
aF33.0
aF34.0
aF35.0
aF36.0
aF37.0
aF38.0
aF39.0
aF40.0
aF41.0
aF42.0
aF43.0
aF44.0
aF45.0
aF46.0
aF47.0
aF48.0
aF49.0
aF50.0
aF51.0
aF52.0
aF53.0
aF54.0
aF55.0
aF56.0
aF57.0
aF58.0
aF59.0
aF60.0
aF61.0
aF62.0
aF63.0
aF64.0
aF65.0
aF66.0
aF67.0
aF68.0
aF69.0
aF70.0
aF71.0
aF72.0
aF73.0
aF74.0
aF75.0
aF76.0
aF77.0
aF78.0
aF79.0
aF80.0
aF81.0
aF82.0
aF83.0
aF84.0
aF85.0
aF86.0
aF87.0
aF88.0
aF89.0
aF90.0
aF91.0
aF92.0
aF93.0
aF94.0
aF95.0
aF96.0
aF97.0
aF98.0
aF99.0
aF100.0
aF101.0
aF102.0
aF103.0
aF104.0
aF105.0
aF106.0
aF107.0
aF108.0
aF109.0
aF110.0
aF111.0
aF112.0
aF113.0
aF114.0
aF115.0
aF116.0
aF117.0
aF118.0
aF119.0
aF120.0
aF121.0
aF122.0
aF123.0
aF124.0
aF125.0
aF126.0
aF127.0
aF128.0
aF129.0
aF130.0
aF131.0
aF132.0
aF133.0
aF134.0
aF135.0
aF136.0
aF137.0
aF138.0
aF139.0
aF140.0
aF141.0
aF142.0
aF143.0
aF144.0
aF145.0
aF146.0
aF147.0
aF148.0
aF149.0
aF150.0
aF151.0
aF152.0
aF153.0
aF154.0
aF155.0
aF156.0
aF157.0
aF158.0
aF159.0
aF160.0
aF161.0
aF162.0
aF163.0
aF164.0
aF165.0
aF166.0
aF167.0
aF168.0
aF169.0
aF170.0
aF171.0
aF172.0
aF173.0
aF174.0
aF175.0
aF176.0
aF177.0
aF178.0
aF179.0
aF180.0
aF181.0
aF182.0
aF183.0
aF184.0
aF185.0
aF186.0
aF187.0
aF188.0
aF189.0
aF190.0
aF191.0
aF192.0
aF193.0
aF194.0
aF195.0
aF196.0
aF197.0
aF198.0
aF199.0
aF200.0
atp50
tp51
Rp52
aa(lp53
S'accuracy'
p54
ag0
(g23
g24
(S'Accuracy'
p55
(lp56
F0.539773
aF0.981818
aF0.986932
aF0.988068
aF0.994318
aF0.994318
aF0.994886
aF0.995455
aF0.995455
aF0.996591
aF0.996023
aF0.996591
aF0.996023
aF0.995455
aF0.996591
aF0.996023
aF0.996023
aF0.996023
aF0.996591
aF0.997727
aF0.997159
aF0.996591
aF0.995455
aF0.994318
aF0.995455
aF0.994886
aF0.994886
aF0.996023
aF0.996023
aF0.996023
aF0.996023
aF0.994886
aF0.996591
aF0.996023
aF0.997159
aF0.996591
aF0.996023
aF0.996591
aF0.994886
aF0.996591
aF0.994886
aF0.996023
aF0.996591
aF0.996591
aF0.997159
aF0.997159
aF0.996591
aF0.997159
aF0.997727
aF0.995455
aF0.996591
aF0.997159
aF0.996591
aF0.995455
aF0.995455
aF0.996591
aF0.997159
aF0.996591
aF0.994886
aF0.996591
aF0.996591
aF0.996023
aF0.996023
aF0.996591
aF0.996023
aF0.996023
aF0.996591
aF0.996591
aF0.996023
aF0.996591
aF0.996591
aF0.996591
aF0.996591
aF0.996591
aF0.996591
aF0.996591
aF0.996591
aF0.996591
aF0.996591
aF0.996591
aF0.996591
aF0.996591
aF0.996591
aF0.997159
aF0.997159
aF0.997159
aF0.997159
aF0.997159
aF0.997159
aF0.997159
aF0.997159
aF0.997159
aF0.997159
aF0.997159
aF0.997159
aF0.997159
aF0.997159
aF0.997159
aF0.997159
aF0.997159
aF0.997159
aF0.997159
aF0.997159
aF0.997159
aF0.996591
aF0.997159
aF0.997159
aF0.997159
aF0.997159
aF0.997159
aF0.997159
aF0.997159
aF0.997159
aF0.997159
aF0.997159
aF0.997159
aF0.997159
aF0.997159
aF0.997159
aF0.997159
aF0.997159
aF0.997159
aF0.997159
aF0.997159
aF0.997159
aF0.997159
aF0.997159
aF0.997159
aF0.997159
aF0.997159
aF0.997159
aF0.997159
aF0.997159
aF0.997159
aF0.997159
aF0.997159
aF0.997159
aF0.997159
aF0.997159
aF0.997159
aF0.997159
aF0.997159
aF0.997159
aF0.997159
aF0.997159
aF0.997159
aF0.997159
aF0.997159
aF0.997159
aF0.997159
aF0.997159
aF0.997159
aF0.997159
aF0.997159
aF0.997159
aF0.997159
aF0.996591
aF0.997159
aF0.997159
aF0.997159
aF0.997159
aF0.997159
aF0.997159
aF0.997159
aF0.997159
aF0.997159
aF0.997159
aF0.997159
aF0.997159
aF0.997159
aF0.997159
aF0.997159
aF0.997159
aF0.997159
aF0.997159
aF0.997159
aF0.997159
aF0.997159
aF0.997159
aF0.997159
aF0.997159
aF0.996591
aF0.997159
aF0.996591
aF0.997159
aF0.997159
aF0.997159
aF0.996591
aF0.997159
aF0.997159
aF0.997159
aF0.997159
aF0.997159
aF0.997159
aF0.997159
aF0.997159
aF0.997159
aF0.997159
aF0.997159
aF0.997159
aF0.997159
atp57
tp58
Rp59
aa(lp60
S'loss'
p61
ag0
(g23
g24
(S'SoftmaxWithLoss'
p62
(lp63
F0.691198
aF0.0461245
aF0.0326445
aF0.0237324
aF0.0186557
aF0.0204616
aF0.0325554
aF0.0128492
aF0.0167614
aF0.0164214
aF0.0162576
aF0.0138223
aF0.0154629
aF0.0123541
aF0.0137404
aF0.0116647
aF0.0172265
aF0.014656
aF0.0116201
aF0.0130116
aF0.0150744
aF0.0125635
aF0.0163568
aF0.0225092
aF0.0186877
aF0.0214423
aF0.020775
aF0.0171676
aF0.0209423
aF0.0193735
aF0.0187169
aF0.0157925
aF0.0203085
aF0.020124
aF0.0182872
aF0.0183523
aF0.0246929
aF0.0194604
aF0.0136366
aF0.0187765
aF0.0276518
aF0.0129596
aF0.0126917
aF0.0170692
aF0.0168344
aF0.0176959
aF0.018741
aF0.0170619
aF0.0150229
aF0.0212149
aF0.0212851
aF0.0145351
aF0.0141224
aF0.0291411
aF0.0222745
aF0.0243579
aF0.0130513
aF0.0312748
aF0.0251663
aF0.0183085
aF0.0190829
aF0.0181829
aF0.0275093
aF0.0189907
aF0.0220783
aF0.027256
aF0.0148113
aF0.013669
aF0.0151968
aF0.014004
aF0.0135845
aF0.0135671
aF0.0144268
aF0.0146979
aF0.0158122
aF0.0158635
aF0.0158721
aF0.0159415
aF0.0159772
aF0.0162047
aF0.0165833
aF0.0168941
aF0.0169413
aF0.0160634
aF0.0160832
aF0.0161849
aF0.0162254
aF0.0163164
aF0.016344
aF0.0163427
aF0.0164158
aF0.0164614
aF0.0165434
aF0.0166687
aF0.0167736
aF0.016844
aF0.0168553
aF0.0168136
aF0.0169355
aF0.0168573
aF0.0169417
aF0.0169825
aF0.0170292
aF0.0170857
aF0.0190302
aF0.0171882
aF0.017223
aF0.0172836
aF0.0173784
aF0.0173582
aF0.0173109
aF0.017368
aF0.0173862
aF0.0174255
aF0.0174666
aF0.0172304
aF0.017359
aF0.0174125
aF0.0177594
aF0.0180521
aF0.0181756
aF0.0181888
aF0.0183831
aF0.0185224
aF0.0185634
aF0.0187644
aF0.018812
aF0.0188376
aF0.0189422
aF0.0189765
aF0.0190373
aF0.0208044
aF0.0209341
aF0.0209093
aF0.0209102
aF0.0208995
aF0.0209055
aF0.0209137
aF0.0209179
aF0.0209251
aF0.0209284
aF0.0209291
aF0.0209331
aF0.0209122
aF0.0209157
aF0.0209194
aF0.0209279
aF0.0209779
aF0.0209815
aF0.0209849
aF0.0209847
aF0.0209873
aF0.020988
aF0.0209846
aF0.0209901
aF0.0209929
aF0.0217176
aF0.0209996
aF0.0210123
aF0.0210156
aF0.0210092
aF0.0210092
aF0.0211186
aF0.0210295
aF0.0210497
aF0.0210585
aF0.0210558
aF0.0210612
aF0.0210643
aF0.0210676
aF0.0210746
aF0.0210755
aF0.021078
aF0.0210835
aF0.0210877
aF0.021114
aF0.0211794
aF0.0211831
aF0.0211904
aF0.0211972
aF0.0211994
aF0.0242442
aF0.0212099
aF0.0266002
aF0.0212065
aF0.021203
aF0.0212073
aF0.0309799
aF0.0212087
aF0.021215
aF0.0212223
aF0.0212277
aF0.0212651
aF0.0212413
aF0.0212436
aF0.0212403
aF0.021251
aF0.0212577
aF0.0212571
aF0.0212606
aF0.0212608
atp64
tp65
Rp66
aatp67
Rp68
sS'loaded_snapshot_epoch'
p69
NsS'pretrained_model'
p70
NsS'deploy_file'
p71
S'deploy.prototxt'
p72
sS'current_iteration'
p73
I8200
sS'gpu_count'
p74
I1
sS'rms_decay'
p75
F0.99
sS'traces_interval'
p76
I0
sS'train_epochs'
p77
I200
sS'network'
p78
ccaffe_pb2
NetParameter
p79
(tRp80
(dp81
S'serialized'
p82
S'\n\x07AlexNet\xa2\x066\n\ntrain-data\x12\x04Data"\x04data"\x05labelB\x07"\x05train\xa2\x06\x05\x10\x01\x18\xe3\x01\xda\x06\x03 \x80\x01\xa2\x06/\n\x08val-data\x12\x04Data"\x04data"\x05labelB\x05"\x03val\xa2\x06\x03\x18\xe3\x01\xda\x06\x02  \xa2\x06d\n\x05conv1\x12\x0bConvolution\x1a\x04data"\x05conv12\n\x1d\x00\x00\x80?%\x00\x00\x80?2\n\x1d\x00\x00\x00@%\x00\x00\x00\x00\xd2\x06(\x08  \x080\x04:\x0f\n\x08gaussian5\n\xd7#<B\x0f\n\x08constant\x15\x00\x00\x00\x00\xa2\x06\x1b\n\x05relu1\x12\x04ReLU\x1a\x05conv1"\x05conv1\xa2\x06)\n\x05norm1\x12\x03LRN\x1a\x05conv1"\x05norm1\xb2\x07\x0c\x08\x05\x15\x17\xb7\xd18\x1d\x00\x00@?\xa2\x06\'\n\x05pool1\x12\x07Pooling\x1a\x05norm1"\x05pool1\xca\x07\x06\x08\x00\x10\x03\x18\x01\xa2\x06g\n\x05conv2\x12\x0bConvolution\x1a\x05pool1"\x05conv22\n\x1d\x00\x00\x80?%\x00\x00\x80?2\n\x1d\x00\x00\x00@%\x00\x00\x00\x00\xd2\x06*\x08@\x18\x00 \x040\x02:\x0f\n\x08gaussian5\n\xd7#<B\x0f\n\x08constant\x15\x00\x00\x00\x00\xa2\x06\x1b\n\x05relu2\x12\x04ReLU\x1a\x05conv2"\x05conv2\xa2\x06g\n\x05conv3\x12\x0bConvolution\x1a\x05conv2"\x05conv32\n\x1d\x00\x00\x80?%\x00\x00\x80?2\n\x1d\x00\x00\x00@%\x00\x00\x00\x00\xd2\x06*\x08@\x18\x00 \x030\x01:\x0f\n\x08gaussian5\n\xd7#<B\x0f\n\x08constant\x15\x00\x00\x00\x00\xa2\x06\x1b\n\x05relu3\x12\x04ReLU\x1a\x05conv3"\x05conv3\xa2\x06_\n\x03fc7\x12\x0cInnerProduct\x1a\x05conv3"\x03fc72\n\x1d\x00\x00\x80?%\x00\x00\x80?2\n\x1d\x00\x00\x00@%\x00\x00\x00\x00\xaa\x07%\x08\x80\x04\x1a\x0f\n\x08gaussian5\n\xd7\xa3;"\x0f\n\x08constant\x15\xcd\xcc\xcc=\xa2\x06\x17\n\x05relu7\x12\x04ReLU\x1a\x03fc7"\x03fc7\xa2\x06"\n\x05drop7\x12\x07Dropout\x1a\x03fc7"\x03fc7\xe2\x06\x05\r\x00\x00\x00?\xa2\x06z\n#fc8_retrain_retrain_retrain_retrain\x12\x0cInnerProduct\x1a\x03fc7"\x03fc82\n\x1d\x00\x00\x80?%\x00\x00\x80?2\n\x1d\x00\x00\x00@%\x00\x00\x00\x00\xaa\x07"\x1a\x0f\n\x08gaussian5\n\xd7#<"\x0f\n\x08constant\x15\x00\x00\x00\x00\xa2\x061\n\x08accuracy\x12\x08Accuracy\x1a\x03fc8\x1a\x05label"\x08accuracyB\x05"\x03val\xa2\x063\n\x04loss\x12\x0fSoftmaxWithLoss\x1a\x03fc8\x1a\x05label"\x04lossJ\x08"\x06deploy\xa2\x06*\n\x07softmax\x12\x07Softmax\x1a\x03fc8"\x07softmaxB\x08"\x06deploy'
p83
sbsS'use_mean'
p84
Vimage
p85
sS'timeline_traces'
p86
(lp87
sS'model_file'
p88
S'original.prototxt'
p89
sS'job_dir'
p90
S'/home/fei/digits/digits/jobs/20180426-154926-f764'
p91
sS'receiving_val_output'
p92
I00
sS'parents'
p93
NsS'progress'
p94
F1.0
sS'lr_policy'
p95
(dp96
S'policy'
p97
Vstep
p98
sS'stepsize'
p99
F33.0
sS'gamma'
p100
F0.1
ssS'crop_size'
p101
I110
sS'receiving_train_output'
p102
I00
sS'val_interval'
p103
F1.0
sS'current_epoch'
p104
F200.0
sS'random_seed'
p105
NsS'saving_snapshot'
p106
I00
sS'pickver_task_caffe_train'
p107
I5
sg38
F0.01
sS'loaded_snapshot_file'
p108
NsS'batch_size'
p109
NsS'digits_version'
p110
S'6.1.1'
p111
sS'job'
p112
g4
sS'pickver_task_train'
p113
I2
sS'current_resources'
p114
NsS'pickver_task'
p115
I1
sS'job_id'
p116
S'20180426-154926-f764'
p117
sS'exception'
p118
NsS'data_aug'
p119
(dp120
S'scale'
p121
F0.0
sS'hsv_use'
p122
I00
sS'flip'
p123
Vnone
p124
sS'quad_rot'
p125
Vnone
p126
sS'noise'
p127
F0.0
sS'whitening'
p128
I00
sS'hsv_h'
p129
F0.02
sS'hsv_s'
p130
F0.04
sS'rot'
p131
I0
sS'hsv_v'
p132
F0.06
sS'contrast'
p133
F0.0
ssS'selected_gpus'
p134
NsS'caffe_flavor'
p135
S'BVLC'
p136
sS'snapshot_prefix'
p137
S'snapshot'
p138
sS'solver'
p139
ccaffe_pb2
SolverParameter
p140
(tRp141
(dp142
g82
S'\x187 )-\n\xd7#<0\x058\x88@B\x04stepM\xcd\xcc\xcc=]fff?e\x17\xb7\xd18h\x92\x15p\x84 z\x08snapshot\x88\x01\x01\xc2\x01\x12train_val.prototxt\xf0\x01\x00'
p143
sbsS'framework_id'
p144
S'caffe'
p145
sS'status_history'
p146
(lp147
((idigits.status
Status
p148
S'I'
p150
bF1524750566.748452
tp151
a((idigits.status
Status
p152
S'R'
p153
bF1524750567.958569
tp154
a((idigits.status
Status
p155
S'D'
p156
bF1524752385.196322
tp157
asS'last_train_update'
p158
F1524752380.863231
sS'train_val_file'
p159
S'train_val.prototxt'
p160
sS'image_mean'
p161
NsS'batch_accumulation'
p162
NsS'caffe_version'
p163
S'1.0.0'
p164
sS'log_file'
p165
S'caffe_output.log'
p166
sS'solver_file'
p167
S'solver.prototxt'
p168
sS'solver_type'
p169
VSGD
p170
sbasS'pickver_job'
p171
I2
sS'dataset_id'
p172
S'20180415-214315-4313'
p173
sS'pickver_job_model_image'
p174
I1
sg118
NsS'group'
p175
V
p176
sS'persistent'
p177
I01
sS'_name'
p178
Vrobot_110_classNoBall_DQN_1max_200ep
p179
sS'form_data'
p180
(dp181
S'form.standard_networks.data'
p182
VNone
p183
sS'form.learning_rate.data'
p184
(lp185
F0.01
asS'form.aug_flip.data'
p186
g124
sS'form.select_gpus.data'
p187
(lp188
sS'form.framework.data'
p189
Vcaffe
p190
sS'form.dataset.data'
p191
V20180415-214315-4313
p192
sS'form.python_layer_from_client.data'
p193
I00
sS'form.lr_multistep_values.data'
p194
V50,85
p195
sS'form.aug_hsv_s.data'
p196
F0.04
sS'form.lr_sigmoid_gamma.data'
p197
F0.1
sS'form.lr_policy.data'
p198
g98
sS'form.aug_contrast.data'
p199
F0.0
sS'form.previous_networks.data'
p200
V20180416-150309-c158
p201
sS'form.python_layer_client_file.data'
p202
g176
sS'form.select_gpu.data'
p203
Vnext
p204
sS'form.aug_quad_rot.data'
p205
g126
sS'form.rms_decay.data'
p206
F0.99
sS'form.method.data'
p207
Vprevious
p208
sS'form.lr_sigmoid_step.data'
p209
F50.0
sS'form.crop_size.data'
p210
NsS'form.select_gpu_count.data'
p211
I1
sS'form.python_layer_server_file.data'
p212
g176
sS'form.pretrained_networks.data'
p213
VNone
p214
sS'form.solver_type.data'
p215
g170
sS'form.aug_noise.data'
p216
F0.0
sS'form.select_gpus_list.data'
p217
g176
sS'form.traces_interval.data'
p218
I0
sS'form.shuffle.data'
p219
I01
sS'form.aug_scale.data'
p220
F0.0
sS'form.batch_accumulation.data'
p221
NsS'form.batch_size.data'
p222
(lp223
NasS'form.custom_network.data'
p224
g176
sS'form.group_name.data'
p225
g176
sS'form.use_mean.data'
p226
g85
sS'form.lr_inv_gamma.data'
p227
F0.1
sS'form.lr_step_gamma.data'
p228
F0.1
sS'form.snapshot_interval.data'
p229
F100.0
sS'form.lr_step_size.data'
p230
F33.0
sS'form.aug_hsv_use.data'
p231
I00
sS'form.lr_inv_power.data'
p232
F0.5
sS'form.aug_whitening.data'
p233
I00
sS'form.aug_hsv_v.data'
p234
F0.06
sS'form.custom_network_snapshot.data'
p235
g176
sS'form.lr_poly_power.data'
p236
F3.0
sS'form.lr_multistep_gamma.data'
p237
F0.5
sS'form.model_name.data'
p238
g179
sS'form.lr_exp_gamma.data'
p239
F0.95
sS'form.val_interval.data'
p240
F1.0
sS'form.aug_rot.data'
p241
I0
sS'form.train_epochs.data'
p242
I200
sS'form.random_seed.data'
p243
NsS'form.aug_hsv_h.data'
p244
F0.02
ssg94
F1.0
sS'_id'
p245
S'20180426-154926-f764'
p246
sS'pickver_job_dataset'
p247
I1
sg146
(lp248
((idigits.status
Status
p249
g150
bF1524750566.74803
tp250
a((idigits.status
Status
p251
g153
bF1524750567.857362
tp252
a((idigits.status
Status
p253
g156
bF1524752385.383583
tp254
asS'pickver_job_model_image_classification'
p255
I1
sb.